
Discarded input sections

 .data          0x0000000000000000        0x0 arch/arm/cpu/armv8/start.o
 .bss           0x0000000000000000        0x0 arch/arm/cpu/armv8/start.o
 .text.sdelay   0x0000000000000000        0xc arch/arm/cpu/armv8/built-in.o
 .text.timer_read_counter
                0x0000000000000000        0xc arch/arm/cpu/armv8/built-in.o
 .text.usec2ticks
                0x0000000000000000       0x44 arch/arm/cpu/armv8/built-in.o
 .text.set_one_region
                0x0000000000000000       0xd4 arch/arm/cpu/armv8/built-in.o
 .text.flush_dcache_all
                0x0000000000000000       0x14 arch/arm/cpu/armv8/built-in.o
 .text.arch_get_page_table
                0x0000000000000000       0x20 arch/arm/cpu/armv8/built-in.o
 .text.mmu_set_region_dcache_behaviour
                0x0000000000000000       0xa8 arch/arm/cpu/armv8/built-in.o
 .text.mmu_change_region_attr
                0x0000000000000000       0xe8 arch/arm/cpu/armv8/built-in.o
 .text.icache_status
                0x0000000000000000       0x34 arch/arm/cpu/armv8/built-in.o
 .text.__asm_switch_ttbr
                0x0000000000000000       0xe0 arch/arm/cpu/armv8/built-in.o
 .text.armv8_switch_to_el1
                0x0000000000000000       0xd0 arch/arm/cpu/armv8/built-in.o
 .rodata.arch_get_page_table.str1.1
                0x0000000000000000       0x1e arch/arm/cpu/armv8/built-in.o
 .rodata.mmu_set_region_dcache_behaviour.str1.1
                0x0000000000000000       0x20 arch/arm/cpu/armv8/built-in.o
 .rodata.set_one_region.str1.1
                0x0000000000000000       0x2e arch/arm/cpu/armv8/built-in.o
 .data          0x0000000000000000        0x0 arch/arm/cpu/armv8/built-in.o
 .bss           0x0000000000000000        0x0 arch/arm/cpu/armv8/built-in.o
 .text.armv7_boot_nonsec_default
                0x0000000000000000        0x8 arch/arm/lib/built-in.o
 .text.reset_misc
                0x0000000000000000        0x4 arch/arm/lib/built-in.o
 .text.enable_caches
                0x0000000000000000        0xc arch/arm/lib/built-in.o
 .text.invalidate_dcache_range
                0x0000000000000000        0x4 arch/arm/lib/built-in.o
 .text.flush_dcache_range
                0x0000000000000000        0x4 arch/arm/lib/built-in.o
 .text.flush_dcache_all
                0x0000000000000000        0xc arch/arm/lib/built-in.o
 .text.check_cache_range
                0x0000000000000000       0x48 arch/arm/lib/built-in.o
 .text.fdt_psci
                0x0000000000000000        0x8 arch/arm/lib/built-in.o
 .rodata.check_cache_range.str1.1
                0x0000000000000000       0x35 arch/arm/lib/built-in.o
 .rodata.enable_caches.str1.1
                0x0000000000000000       0x1d arch/arm/lib/built-in.o
 .data          0x0000000000000000        0x0 arch/arm/lib/built-in.o
 .__efi_runtime_rel_start
                0x0000000000000000        0x0 arch/arm/lib/built-in.o
 .__efi_runtime_rel_stop
                0x0000000000000000        0x0 arch/arm/lib/built-in.o
 .__efi_runtime_start
                0x0000000000000000        0x0 arch/arm/lib/built-in.o
 .__efi_runtime_stop
                0x0000000000000000        0x0 arch/arm/lib/built-in.o
 .__end         0x0000000000000000        0x0 arch/arm/lib/built-in.o
 .__secure_end  0x0000000000000000        0x0 arch/arm/lib/built-in.o
 .__secure_stack_end
                0x0000000000000000        0x0 arch/arm/lib/built-in.o
 .__secure_stack_start
                0x0000000000000000        0x0 arch/arm/lib/built-in.o
 .__secure_start
                0x0000000000000000        0x0 arch/arm/lib/built-in.o
 .bss           0x0000000000000000        0x0 arch/arm/lib/built-in.o
 .text          0x0000000000000000        0x0 arch/arm/mach-sunxi/built-in.o
 .text.gtbus_init
                0x0000000000000000        0x4 arch/arm/mach-sunxi/built-in.o
 .text.clock_twi_onoff
                0x0000000000000000       0x90 arch/arm/mach-sunxi/built-in.o
 .text.sunxi_get_sram_id
                0x0000000000000000       0x30 arch/arm/mach-sunxi/built-in.o
 .text.mctl_await_completion
                0x0000000000000000       0x64 arch/arm/mach-sunxi/built-in.o
 .text.mctl_mem_matches
                0x0000000000000000       0x40 arch/arm/mach-sunxi/built-in.o
 .text.sunxi_gpio_get_cfgpin
                0x0000000000000000       0x34 arch/arm/mach-sunxi/built-in.o
 .text.sunxi_usb_phy_enable_squelch_detect
                0x0000000000000000       0xa8 arch/arm/mach-sunxi/built-in.o
 .text.sunxi_usb_phy_power_off
                0x0000000000000000       0x34 arch/arm/mach-sunxi/built-in.o
 .text.sunxi_usb_phy_vbus_detect
                0x0000000000000000       0x78 arch/arm/mach-sunxi/built-in.o
 .text.sunxi_usb_phy_id_detect
                0x0000000000000000       0x24 arch/arm/mach-sunxi/built-in.o
 .text.sunxi_usb_phy_remove
                0x0000000000000000       0x68 arch/arm/mach-sunxi/built-in.o
 .text.prcm_apb0_enable
                0x0000000000000000       0x24 arch/arm/mach-sunxi/built-in.o
 .text.prcm_apb0_disable
                0x0000000000000000       0x28 arch/arm/mach-sunxi/built-in.o
 .text.rsb_await_trans
                0x0000000000000000       0x80 arch/arm/mach-sunxi/built-in.o
 .text.rsb_do_trans
                0x0000000000000000       0x18 arch/arm/mach-sunxi/built-in.o
 .text.rsb_init
                0x0000000000000000       0xd8 arch/arm/mach-sunxi/built-in.o
 .text.rsb_set_device_address
                0x0000000000000000       0x30 arch/arm/mach-sunxi/built-in.o
 .text.rsb_write
                0x0000000000000000       0x48 arch/arm/mach-sunxi/built-in.o
 .text.rsb_read
                0x0000000000000000       0x6c arch/arm/mach-sunxi/built-in.o
 .text.clock_set_pll5
                0x0000000000000000       0xf8 arch/arm/mach-sunxi/built-in.o
 .text.clock_get_pll3
                0x0000000000000000       0x34 arch/arm/mach-sunxi/built-in.o
 .text.clock_get_mipi_pll
                0x0000000000000000       0x50 arch/arm/mach-sunxi/built-in.o
 .text.clock_set_de_mod_clock
                0x0000000000000000       0x50 arch/arm/mach-sunxi/built-in.o
 .rodata.mctl_await_completion.str1.1
                0x0000000000000000       0x1b arch/arm/mach-sunxi/built-in.o
 .data          0x0000000000000000       0x18 arch/arm/mach-sunxi/built-in.o
 .bss           0x0000000000000000        0x0 arch/arm/mach-sunxi/built-in.o
 .text          0x0000000000000000        0x0 board/sunxi/built-in.o
 .text.i2c_init_board
                0x0000000000000000        0x4 board/sunxi/built-in.o
 .text.g_dnl_board_usb_cable_connected
                0x0000000000000000        0x8 board/sunxi/built-in.o
 .text.board_fit_config_name_match
                0x0000000000000000       0xb8 board/sunxi/built-in.o
 .rodata.board_fit_config_name_match.str1.1
                0x0000000000000000       0x26 board/sunxi/built-in.o
 .data          0x0000000000000000        0x0 board/sunxi/built-in.o
 .bss           0x0000000000000000        0x0 board/sunxi/built-in.o
 .text          0x0000000000000000        0x0 cmd/built-in.o
 .text.sunxi_name_to_gpio
                0x0000000000000000       0x1c cmd/built-in.o
 .data          0x0000000000000000        0x0 cmd/built-in.o
 .bss           0x0000000000000000        0x0 cmd/built-in.o
 .text          0x0000000000000000        0x0 common/built-in.o
 .text.hash_progressive_lookup_algo
                0x0000000000000000       0x84 common/built-in.o
 .text.hash_parse_string
                0x0000000000000000       0x7c common/built-in.o
 .text.hash_block
                0x0000000000000000       0x88 common/built-in.o
 .text.unset_local_var
                0x0000000000000000       0xbc common/built-in.o
 .text.coloured_LED_init
                0x0000000000000000        0x4 common/built-in.o
 .text.red_led_on
                0x0000000000000000        0x4 common/built-in.o
 .text.red_led_off
                0x0000000000000000        0x4 common/built-in.o
 .text.green_led_on
                0x0000000000000000        0x4 common/built-in.o
 .text.green_led_off
                0x0000000000000000        0x4 common/built-in.o
 .text.yellow_led_on
                0x0000000000000000        0x4 common/built-in.o
 .text.yellow_led_off
                0x0000000000000000        0x4 common/built-in.o
 .text.blue_led_on
                0x0000000000000000        0x4 common/built-in.o
 .text.blue_led_off
                0x0000000000000000        0x4 common/built-in.o
 .text.arch_reserve_stacks
                0x0000000000000000        0x8 common/built-in.o
 .text.board_flash_wp_on
                0x0000000000000000        0x8 common/built-in.o
 .text.fixup_cpu
                0x0000000000000000        0x8 common/built-in.o
 .text.fdt_read_prop
                0x0000000000000000       0x48 common/built-in.o
 .text.fdt_getprop_u32_default
                0x0000000000000000       0x5c common/built-in.o
 .text.do_fixup_by_path_u32
                0x0000000000000000       0x28 common/built-in.o
 .text.do_fixup_by_prop
                0x0000000000000000       0xc8 common/built-in.o
 .text.do_fixup_by_prop_u32
                0x0000000000000000       0x28 common/built-in.o
 .text.do_fixup_by_compat
                0x0000000000000000       0xa8 common/built-in.o
 .text.do_fixup_by_compat_u32
                0x0000000000000000       0x28 common/built-in.o
 .text.fdt_increase_size
                0x0000000000000000       0x14 common/built-in.o
 .text.fdt_del_node_and_alias
                0x0000000000000000       0x5c common/built-in.o
 .text.fdt_node_offset_by_compat_reg
                0x0000000000000000       0xa0 common/built-in.o
 .text.fdt_alloc_phandle
                0x0000000000000000       0x6c common/built-in.o
 .text.fdt_set_phandle
                0x0000000000000000       0x6c common/built-in.o
 .text.fdt_create_phandle
                0x0000000000000000       0x78 common/built-in.o
 .text.fdt_set_node_status
                0x0000000000000000       0xd8 common/built-in.o
 .text.fdt_set_status_by_alias
                0x0000000000000000       0x40 common/built-in.o
 .text.fdt_verify_alias_address
                0x0000000000000000       0xdc common/built-in.o
 .text.fdt_get_base_address
                0x0000000000000000       0x4c common/built-in.o
 .text.fdt_read_range
                0x0000000000000000      0x150 common/built-in.o
 .text.fdt_fixup_display
                0x0000000000000000       0xe4 common/built-in.o
 .text.mdio_free
                0x0000000000000000        0x4 common/built-in.o
 .text.mdio_register_seq
                0x0000000000000000       0x48 common/built-in.o
 .text.mdio_unregister
                0x0000000000000000       0x30 common/built-in.o
 .text.usb_submit_int_msg
                0x0000000000000000        0x4 common/built-in.o
 .text.usb_get_report
                0x0000000000000000       0x5c common/built-in.o
 .text.usb_get_class_descriptor
                0x0000000000000000       0x5c common/built-in.o
 .text.board_usb_init
                0x0000000000000000        0x8 common/built-in.o
 .text.board_usb_cleanup
                0x0000000000000000        0x8 common/built-in.o
 .text.usb_hub_probe
                0x0000000000000000       0x54 common/built-in.o
 .text.iomux_printdevs
                0x0000000000000000       0x7c common/built-in.o
 .text.snip     0x0000000000000000       0x7c common/built-in.o
 .text.edid_check_checksum
                0x0000000000000000       0x30 common/built-in.o
 .text.edid_get_ranges
                0x0000000000000000       0xa8 common/built-in.o
 .text.edid_print_info
                0x0000000000000000      0x5d0 common/built-in.o
 .text.splash_screen_prepare
                0x0000000000000000        0x8 common/built-in.o
 .text.menu_default_choice
                0x0000000000000000       0x20 common/built-in.o
 .text.overwrite_console
                0x0000000000000000        0x8 common/built-in.o
 .text.cli_simple_parse_line
                0x0000000000000000       0x98 common/built-in.o
 .text.cli_simple_run_command
                0x0000000000000000      0x14c common/built-in.o
 .text.cli_simple_loop
                0x0000000000000000       0x90 common/built-in.o
 .text.cli_simple_run_command_list
                0x0000000000000000       0x74 common/built-in.o
 .text.fgetc    0x0000000000000000       0x44 common/built-in.o
 .text.ftstc    0x0000000000000000       0x14 common/built-in.o
 .text.fputc    0x0000000000000000       0x14 common/built-in.o
 .text.confirm_yesno
                0x0000000000000000       0xd4 common/built-in.o
 .text.console_announce_r
                0x0000000000000000        0x8 common/built-in.o
 .text.valloc   0x0000000000000000        0xc common/built-in.o
 .text.pvalloc  0x0000000000000000       0x10 common/built-in.o
 .text.cfree    0x0000000000000000        0x4 common/built-in.o
 .text.malloc_usable_size
                0x0000000000000000       0x44 common/built-in.o
 .text.mallopt  0x0000000000000000       0x5c common/built-in.o
 .text.memalign_simple
                0x0000000000000000       0x4c common/built-in.o
 .text.genimg_get_short_name
                0x0000000000000000       0x28 common/built-in.o
 .text.genimg_get_cat_name
                0x0000000000000000       0x78 common/built-in.o
 .text.genimg_get_cat_short_name
                0x0000000000000000       0x78 common/built-in.o
 .text.genimg_get_cat_count
                0x0000000000000000       0x1c common/built-in.o
 .text.genimg_get_cat_desc
                0x0000000000000000       0x1c common/built-in.o
 .text.genimg_get_type_short_name
                0x0000000000000000       0x10 common/built-in.o
 .text.genimg_get_comp_short_name
                0x0000000000000000       0x10 common/built-in.o
 .text.genimg_get_os_short_name
                0x0000000000000000       0x10 common/built-in.o
 .text.genimg_get_arch_short_name
                0x0000000000000000       0x10 common/built-in.o
 .text.fit_get_subimage_count
                0x0000000000000000       0x68 common/built-in.o
 .text.fit_get_timestamp
                0x0000000000000000       0x5c common/built-in.o
 .text.fit_image_get_data_offset
                0x0000000000000000       0x48 common/built-in.o
 .text.fit_image_get_data_size
                0x0000000000000000       0x48 common/built-in.o
 .text.fit_set_timestamp
                0x0000000000000000       0x3c common/built-in.o
 .text.fit_conf_find_compat
                0x0000000000000000      0x1a4 common/built-in.o
 .text.fit_conf_get_prop_node_count
                0x0000000000000000        0x4 common/built-in.o
 .text.stdio_deregister
                0x0000000000000000       0x38 common/built-in.o
 .text.stdio_init
                0x0000000000000000       0x1c common/built-in.o
 .text.run_command_repeatable
                0x0000000000000000       0x20 common/built-in.o
 .rodata.fdt_set_node_status
                0x0000000000000000        0x4 common/built-in.o
 .rodata.fdt_create_phandle.str1.1
                0x0000000000000000       0x1a common/built-in.o
 .rodata.fdt_fixup_display.str1.1
                0x0000000000000000       0x1c common/built-in.o
 .rodata.fdt_read_range.str1.1
                0x0000000000000000        0xf common/built-in.o
 .rodata.fdt_set_phandle.str1.1
                0x0000000000000000       0x16 common/built-in.o
 .rodata.fdt_verify_alias_address.str1.1
                0x0000000000000000       0xcd common/built-in.o
 .rodata.mdio_register_seq.str1.1
                0x0000000000000000        0x6 common/built-in.o
 .rodata.iomux_printdevs.str1.1
                0x0000000000000000        0x6 common/built-in.o
 .rodata.CSWTCH.29
                0x0000000000000000        0x8 common/built-in.o
 .rodata.edid_print_info.str1.1
                0x0000000000000000      0x487 common/built-in.o
 .rodata.cli_simple_loop.str1.1
                0x0000000000000000       0x11 common/built-in.o
 .rodata.cli_simple_parse_line.str1.1
                0x0000000000000000       0x1f common/built-in.o
 .rodata.cli_simple_run_command.str1.1
                0x0000000000000000       0x16 common/built-in.o
 .rodata.confirm_yesno.str1.1
                0x0000000000000000       0x10 common/built-in.o
 .rodata.mallopt
                0x0000000000000000        0x4 common/built-in.o
 .rodata.genimg_get_short_name.str1.1
                0x0000000000000000        0x8 common/built-in.o
 .rodata.table_info
                0x0000000000000000       0x60 common/built-in.o
 .rodata.unknown_str.7495
                0x0000000000000000        0x9 common/built-in.o
 .rodata.fit_get_timestamp.str1.1
                0x0000000000000000        0xa common/built-in.o
 .rodata.fit_image_get_data_offset.str1.1
                0x0000000000000000        0xc common/built-in.o
 .rodata.fit_image_get_data_size.str1.1
                0x0000000000000000        0xa common/built-in.o
 .data          0x0000000000000000        0x0 common/built-in.o
 .bss           0x0000000000000000        0x0 common/built-in.o
 .bss.lastcommand.6785
                0x0000000000000000      0x401 common/built-in.o
 .bss.msg.7496  0x0000000000000000       0x1e common/built-in.o
 .bss.save_addr
                0x0000000000000000        0x8 common/built-in.o
 .bss.save_size
                0x0000000000000000        0x8 common/built-in.o
 .text          0x0000000000000000        0x0 disk/built-in.o
 .text.part_get_info_by_name_type
                0x0000000000000000       0xdc disk/built-in.o
 .text.part_get_info_by_name
                0x0000000000000000        0x8 disk/built-in.o
 .text.is_valid_dos_buf
                0x0000000000000000       0x1c disk/built-in.o
 .text.write_mbr_partition
                0x0000000000000000       0x80 disk/built-in.o
 .text.is_valid_gpt_buf
                0x0000000000000000       0x9c disk/built-in.o
 .text.write_mbr_and_gpt_partitions
                0x0000000000000000      0x47c disk/built-in.o
 .rodata.__func__.6733
                0x0000000000000000       0x14 disk/built-in.o
 .rodata.write_mbr_partition.str1.1
                0x0000000000000000       0x2d disk/built-in.o
 .rodata.__func__.7569
                0x0000000000000000       0x1d disk/built-in.o
 .rodata.write_mbr_and_gpt_partitions.str1.1
                0x0000000000000000       0x7c disk/built-in.o
 .data          0x0000000000000000        0x0 disk/built-in.o
 .bss           0x0000000000000000        0x0 disk/built-in.o
 .text          0x0000000000000000        0x0 drivers/built-in.o
 .text._device_find_global_by_of_offset
                0x0000000000000000       0x68 drivers/built-in.o
 .text.device_find_child_by_seq
                0x0000000000000000       0x58 drivers/built-in.o
 .text.device_get_child_by_seq
                0x0000000000000000       0x60 drivers/built-in.o
 .text.device_find_child_by_of_offset
                0x0000000000000000       0x44 drivers/built-in.o
 .text.device_get_child_by_of_offset
                0x0000000000000000       0x40 drivers/built-in.o
 .text.device_get_global_by_of_offset
                0x0000000000000000       0x48 drivers/built-in.o
 .text.dev_get_parent
                0x0000000000000000        0x8 drivers/built-in.o
 .text.dev_get_driver_ops
                0x0000000000000000       0x18 drivers/built-in.o
 .text.dev_get_uclass_name
                0x0000000000000000       0x1c drivers/built-in.o
 .text.device_has_children
                0x0000000000000000       0x14 drivers/built-in.o
 .text.device_set_name_alloced
                0x0000000000000000       0x10 drivers/built-in.o
 .text.device_set_name
                0x0000000000000000       0x44 drivers/built-in.o
 .text.device_is_compatible
                0x0000000000000000       0x2c drivers/built-in.o
 .text.of_machine_is_compatible
                0x0000000000000000       0x2c drivers/built-in.o
 .text.devfdt_get_addr_size_index
                0x0000000000000000       0x48 drivers/built-in.o
 .text.devfdt_get_addr_ptr
                0x0000000000000000        0x8 drivers/built-in.o
 .text.devfdt_map_physmem
                0x0000000000000000       0x1c drivers/built-in.o
 .text.dm_fixup_for_gd_move
                0x0000000000000000       0x20 drivers/built-in.o
 .text.dm_set_translation_offset
                0x0000000000000000       0x28 drivers/built-in.o
 .text.dm_uninit
                0x0000000000000000       0x28 drivers/built-in.o
 .text.uclass_destroy
                0x0000000000000000       0x98 drivers/built-in.o
 .text.uclass_get_name
                0x0000000000000000       0x30 drivers/built-in.o
 .text.uclass_get_device_by_driver
                0x0000000000000000       0x7c drivers/built-in.o
 .text.uclass_get_device_by_name
                0x0000000000000000       0x38 drivers/built-in.o
 .text.uclass_first_device_check
                0x0000000000000000       0x40 drivers/built-in.o
 .text.uclass_next_device_check
                0x0000000000000000       0x30 drivers/built-in.o
 .text.list_count_items
                0x0000000000000000       0x28 drivers/built-in.o
 .text.simple_bus_translate
                0x0000000000000000       0x50 drivers/built-in.o
 .text.of_read_fmap_entry
                0x0000000000000000       0xc8 drivers/built-in.o
 .text.ofnode_read_s32_default
                0x0000000000000000       0x24 drivers/built-in.o
 .text.ofnode_read_string
                0x0000000000000000       0x60 drivers/built-in.o
 .text.ofnode_find_subnode
                0x0000000000000000       0x28 drivers/built-in.o
 .text.ofnode_first_subnode
                0x0000000000000000       0x24 drivers/built-in.o
 .text.ofnode_next_subnode
                0x0000000000000000       0x24 drivers/built-in.o
 .text.ofnode_read_size
                0x0000000000000000       0x38 drivers/built-in.o
 .text.decode_timing_property
                0x0000000000000000       0x78 drivers/built-in.o
 .text.ofnode_get_addr_index
                0x0000000000000000       0x10 drivers/built-in.o
 .text.ofnode_get_addr
                0x0000000000000000        0x8 drivers/built-in.o
 .text.ofnode_stringlist_search
                0x0000000000000000       0x44 drivers/built-in.o
 .text.ofnode_read_string_index
                0x0000000000000000       0x4c drivers/built-in.o
 .text.ofnode_read_string_count
                0x0000000000000000       0x14 drivers/built-in.o
 .text.ofnode_count_phandle_with_args
                0x0000000000000000       0x24 drivers/built-in.o
 .text.ofnode_get_chosen_prop
                0x0000000000000000       0x30 drivers/built-in.o
 .text.ofnode_get_chosen_node
                0x0000000000000000       0x24 drivers/built-in.o
 .text.ofnode_read_bool
                0x0000000000000000       0x20 drivers/built-in.o
 .text.ofnode_decode_display_timing
                0x0000000000000000      0x2e8 drivers/built-in.o
 .text.ofnode_is_available
                0x0000000000000000       0x28 drivers/built-in.o
 .text.ofnode_get_addr_size
                0x0000000000000000       0x18 drivers/built-in.o
 .text.ofnode_read_u8_array_ptr
                0x0000000000000000       0x18 drivers/built-in.o
 .text.ofnode_read_pci_addr
                0x0000000000000000       0xb0 drivers/built-in.o
 .text.ofnode_read_simple_addr_cells
                0x0000000000000000       0x10 drivers/built-in.o
 .text.ofnode_read_addr_cells
                0x0000000000000000        0x4 drivers/built-in.o
 .text.ofnode_read_simple_size_cells
                0x0000000000000000       0x10 drivers/built-in.o
 .text.ofnode_read_size_cells
                0x0000000000000000        0x4 drivers/built-in.o
 .text.ofnode_pre_reloc
                0x0000000000000000       0x64 drivers/built-in.o
 .text.ofnode_read_resource
                0x0000000000000000       0x6c drivers/built-in.o
 .text.ofnode_read_resource_byname
                0x0000000000000000       0x4c drivers/built-in.o
 .text.board_mmc_init
                0x0000000000000000        0x8 drivers/built-in.o
 .text.mmc_set_preinit
                0x0000000000000000        0x8 drivers/built-in.o
 .text.mmc_destroy
                0x0000000000000000        0x4 drivers/built-in.o
 .text.display_read_edid
                0x0000000000000000       0x20 drivers/built-in.o
 .text.panel_enable_backlight
                0x0000000000000000       0x1c drivers/built-in.o
 .text.fb_put_byte
                0x0000000000000000       0x24 drivers/built-in.o
 .text.video_bmp_display
                0x0000000000000000      0x36c drivers/built-in.o
 .text.hdmi_phy_i2c_write
                0x0000000000000000       0xc0 drivers/built-in.o
 .text.dw_hdmi_phy_cfg
                0x0000000000000000      0x2f0 drivers/built-in.o
 .text.dw_hdmi_phy_wait_for_hpd
                0x0000000000000000       0x5c drivers/built-in.o
 .text.dw_hdmi_phy_init
                0x0000000000000000       0x4c drivers/built-in.o
 .text._input_send_keycodes
                0x0000000000000000      0x41c drivers/built-in.o
 .text.input_send_keycodes
                0x0000000000000000        0x8 drivers/built-in.o
 .text.input_add_keycode
                0x0000000000000000       0x80 drivers/built-in.o
 .text.input_add_table
                0x0000000000000000       0x38 drivers/built-in.o
 .text.input_set_delays
                0x0000000000000000        0x8 drivers/built-in.o
 .text.input_allow_repeats
                0x0000000000000000        0x8 drivers/built-in.o
 .text.input_leds_changed
                0x0000000000000000       0x18 drivers/built-in.o
 .text.input_add_tables
                0x0000000000000000       0x70 drivers/built-in.o
 .text.input_stdio_register
                0x0000000000000000       0x58 drivers/built-in.o
 .text.create_keymap
                0x0000000000000000       0xa0 drivers/built-in.o
 .text.key_matrix_decode
                0x0000000000000000       0xe0 drivers/built-in.o
 .text.key_matrix_decode_fdt
                0x0000000000000000       0xb4 drivers/built-in.o
 .text.key_matrix_init
                0x0000000000000000       0x50 drivers/built-in.o
 .rodata.of_read_fmap_entry.str1.1
                0x0000000000000000       0x1b drivers/built-in.o
 .rodata.ofnode_decode_display_timing.str1.1
                0x0000000000000000       0xca drivers/built-in.o
 .rodata.ofnode_get_chosen_prop.str1.1
                0x0000000000000000        0x8 drivers/built-in.o
 .rodata.ofnode_pre_reloc.str1.1
                0x0000000000000000       0x30 drivers/built-in.o
 .rodata.ofnode_read_resource.str1.1
                0x0000000000000000        0x4 drivers/built-in.o
 .rodata.ofnode_read_resource_byname.str1.1
                0x0000000000000000        0xa drivers/built-in.o
 .rodata.video_bmp_display.str1.1
                0x0000000000000000       0x56 drivers/built-in.o
 .rodata.CSWTCH.23
                0x0000000000000000        0xd drivers/built-in.o
 .rodata.input_stdio_register.str1.1
                0x0000000000000000        0x6 drivers/built-in.o
 .rodata.kbd_plain_xlate
                0x0000000000000000       0x64 drivers/built-in.o
 .rodata.kbd_plain_xlate_german
                0x0000000000000000       0x84 drivers/built-in.o
 .rodata.kbd_to_ansi364
                0x0000000000000000       0x40 drivers/built-in.o
 .rodata.key_matrix_decode_fdt.str1.1
                0x0000000000000000       0x1d drivers/built-in.o
 .data          0x0000000000000000        0x0 drivers/built-in.o
 .data.kbd_ctrl_xlate
                0x0000000000000000       0x64 drivers/built-in.o
 .data.kbd_entry
                0x0000000000000000       0xe0 drivers/built-in.o
 .data.kbd_right_alt_xlate_german
                0x0000000000000000       0x58 drivers/built-in.o
 .data.kbd_shift_xlate
                0x0000000000000000       0x64 drivers/built-in.o
 .data.kbd_shift_xlate_german
                0x0000000000000000       0x84 drivers/built-in.o
 .bss           0x0000000000000000        0x0 drivers/built-in.o
 .text          0x0000000000000000        0x0 drivers/gpio/built-in.o
 .text.gpio_requestf
                0x0000000000000000       0xa0 drivers/gpio/built-in.o
 .text.dm_gpio_get_open_drain
                0x0000000000000000       0x5c drivers/gpio/built-in.o
 .text.dm_gpio_set_open_drain
                0x0000000000000000       0x68 drivers/gpio/built-in.o
 .text.dm_gpio_set_dir
                0x0000000000000000        0x8 drivers/gpio/built-in.o
 .text.gpio_claim_vector
                0x0000000000000000       0xac drivers/gpio/built-in.o
 .text.gpio_get_values_as_int
                0x0000000000000000       0x64 drivers/gpio/built-in.o
 .text.dm_gpio_get_values_as_int
                0x0000000000000000       0x70 drivers/gpio/built-in.o
 .text.gpio_request_by_name_nodev
                0x0000000000000000       0x78 drivers/gpio/built-in.o
 .text.gpio_get_list_count
                0x0000000000000000       0x28 drivers/gpio/built-in.o
 .text.dm_gpio_free
                0x0000000000000000       0x10 drivers/gpio/built-in.o
 .text.gpio_free_list
                0x0000000000000000       0x54 drivers/gpio/built-in.o
 .text.gpio_free_list_nodev
                0x0000000000000000       0x10 drivers/gpio/built-in.o
 .text.gpio_request_list_by_name_nodev
                0x0000000000000000       0xd4 drivers/gpio/built-in.o
 .text.gpio_request_list_by_name
                0x0000000000000000       0x18 drivers/gpio/built-in.o
 .text.gpio_get_number
                0x0000000000000000       0x24 drivers/gpio/built-in.o
 .text.sunxi_name_to_gpio_bank
                0x0000000000000000       0x40 drivers/gpio/built-in.o
 .rodata.dm_gpio_get_open_drain.str1.1
                0x0000000000000000        0xf drivers/gpio/built-in.o
 .rodata.dm_gpio_set_open_drain.str1.1
                0x0000000000000000        0xf drivers/gpio/built-in.o
 .data          0x0000000000000000        0x0 drivers/gpio/built-in.o
 .bss           0x0000000000000000        0x0 drivers/gpio/built-in.o
 .text          0x0000000000000000        0x0 drivers/i2c/built-in.o
 .text.i2c_setup_offset
                0x0000000000000000       0x58 drivers/i2c/built-in.o
 .text.i2c_dump_msgs
                0x0000000000000000       0xac drivers/i2c/built-in.o
 .text.dm_i2c_read
                0x0000000000000000      0x178 drivers/i2c/built-in.o
 .text.dm_i2c_write
                0x0000000000000000      0x1f0 drivers/i2c/built-in.o
 .text.dm_i2c_xfer
                0x0000000000000000       0x4c drivers/i2c/built-in.o
 .text.dm_i2c_reg_read
                0x0000000000000000       0x28 drivers/i2c/built-in.o
 .text.dm_i2c_reg_write
                0x0000000000000000       0x24 drivers/i2c/built-in.o
 .text.i2c_get_chip
                0x0000000000000000      0x100 drivers/i2c/built-in.o
 .text.i2c_get_chip_for_busnum
                0x0000000000000000       0x54 drivers/i2c/built-in.o
 .text.dm_i2c_probe
                0x0000000000000000       0xa4 drivers/i2c/built-in.o
 .text.dm_i2c_get_bus_speed
                0x0000000000000000       0x44 drivers/i2c/built-in.o
 .text.i2c_set_chip_flags
                0x0000000000000000       0x60 drivers/i2c/built-in.o
 .text.i2c_get_chip_flags
                0x0000000000000000       0x2c drivers/i2c/built-in.o
 .text.i2c_set_chip_offset_len
                0x0000000000000000       0x38 drivers/i2c/built-in.o
 .text.i2c_get_chip_offset_len
                0x0000000000000000       0x18 drivers/i2c/built-in.o
 .text.i2c_deblock
                0x0000000000000000       0x1c drivers/i2c/built-in.o
 .rodata.i2c_dump_msgs.str1.1
                0x0000000000000000       0x1b drivers/i2c/built-in.o
 .data          0x0000000000000000        0x0 drivers/i2c/built-in.o
 .bss           0x0000000000000000        0x0 drivers/i2c/built-in.o
 .text          0x0000000000000000        0x0 drivers/net/built-in.o
 .data          0x0000000000000000        0x0 drivers/net/built-in.o
 .bss           0x0000000000000000        0x0 drivers/net/built-in.o
 .text          0x0000000000000000        0x0 drivers/net/phy/built-in.o
 .text.phy_register
                0x0000000000000000       0x24 drivers/net/phy/built-in.o
 .text.phy_set_supported
                0x0000000000000000       0x5c drivers/net/phy/built-in.o
 .text.miiphy_reset
                0x0000000000000000       0x30 drivers/net/phy/built-in.o
 .text.phy_startup
                0x0000000000000000       0x18 drivers/net/phy/built-in.o
 .data          0x0000000000000000        0x0 drivers/net/phy/built-in.o
 .bss           0x0000000000000000        0x0 drivers/net/phy/built-in.o
 .text          0x0000000000000000        0x0 drivers/serial/built-in.o
 .text.ns16550_calc_divisor
                0x0000000000000000       0x10 drivers/serial/built-in.o
 .text.NS16550_reinit
                0x0000000000000000       0x5c drivers/serial/built-in.o
 .text.NS16550_putc
                0x0000000000000000       0x34 drivers/serial/built-in.o
 .text.NS16550_getc
                0x0000000000000000       0x30 drivers/serial/built-in.o
 .text.NS16550_tstc
                0x0000000000000000       0x20 drivers/serial/built-in.o
 .data          0x0000000000000000        0x0 drivers/serial/built-in.o
 .bss           0x0000000000000000        0x0 drivers/serial/built-in.o
 .text          0x0000000000000000        0x0 drivers/spi/built-in.o
 .text.spi_set_wordlen
                0x0000000000000000       0x38 drivers/spi/built-in.o
 .text.spi_do_alloc_slave
                0x0000000000000000       0x70 drivers/spi/built-in.o
 .rodata.spi_set_wordlen.str1.1
                0x0000000000000000       0x19 drivers/spi/built-in.o
 .data          0x0000000000000000        0x0 drivers/spi/built-in.o
 .bss           0x0000000000000000        0x0 drivers/spi/built-in.o
 .comment       0x0000000000000000       0x20 drivers/spi/built-in.o
 .note.GNU-stack
                0x0000000000000000        0x0 drivers/spi/built-in.o
 .debug_aranges
                0x0000000000000000       0x40 drivers/spi/built-in.o
 .debug_info    0x0000000000000000      0xc45 drivers/spi/built-in.o
 .debug_abbrev  0x0000000000000000      0x24d drivers/spi/built-in.o
 .debug_line    0x0000000000000000      0x1b0 drivers/spi/built-in.o
 .debug_frame   0x0000000000000000       0x78 drivers/spi/built-in.o
 .debug_str     0x0000000000000000      0xa51 drivers/spi/built-in.o
 .debug_loc     0x0000000000000000      0x24a drivers/spi/built-in.o
 .debug_ranges  0x0000000000000000       0x30 drivers/spi/built-in.o
 .text          0x0000000000000000        0x0 drivers/usb/common/built-in.o
 .text.usb_get_dr_mode
                0x0000000000000000       0x88 drivers/usb/common/built-in.o
 .rodata.str1.1
                0x0000000000000000       0x15 drivers/usb/common/built-in.o
 .rodata.usb_dr_modes
                0x0000000000000000       0x20 drivers/usb/common/built-in.o
 .rodata.usb_get_dr_mode.str1.1
                0x0000000000000000       0x1f drivers/usb/common/built-in.o
 .data          0x0000000000000000        0x0 drivers/usb/common/built-in.o
 .bss           0x0000000000000000        0x0 drivers/usb/common/built-in.o
 .comment       0x0000000000000000       0x20 drivers/usb/common/built-in.o
 .note.GNU-stack
                0x0000000000000000        0x0 drivers/usb/common/built-in.o
 .debug_aranges
                0x0000000000000000       0x30 drivers/usb/common/built-in.o
 .debug_info    0x0000000000000000      0xe57 drivers/usb/common/built-in.o
 .debug_abbrev  0x0000000000000000      0x291 drivers/usb/common/built-in.o
 .debug_line    0x0000000000000000      0x202 drivers/usb/common/built-in.o
 .debug_frame   0x0000000000000000       0x48 drivers/usb/common/built-in.o
 .debug_str     0x0000000000000000      0xc1e drivers/usb/common/built-in.o
 .debug_loc     0x0000000000000000       0xee drivers/usb/common/built-in.o
 .debug_ranges  0x0000000000000000       0x20 drivers/usb/common/built-in.o
 .text          0x0000000000000000        0x0 drivers/usb/gadget/built-in.o
 .text.usb_ep_autoconfig
                0x0000000000000000      0x1fc drivers/usb/gadget/built-in.o
 .text.usb_ep_autoconfig_reset
                0x0000000000000000       0x30 drivers/usb/gadget/built-in.o
 .text.usb_descriptor_fillbuf
                0x0000000000000000       0x84 drivers/usb/gadget/built-in.o
 .text.usb_gadget_config_buf
                0x0000000000000000       0xa4 drivers/usb/gadget/built-in.o
 .text.usb_gadget_get_string
                0x0000000000000000      0x19c drivers/usb/gadget/built-in.o
 .data          0x0000000000000000        0x0 drivers/usb/gadget/built-in.o
 .bss           0x0000000000000000        0x0 drivers/usb/gadget/built-in.o
 .bss.epnum     0x0000000000000000        0x4 drivers/usb/gadget/built-in.o
 .comment       0x0000000000000000       0x60 drivers/usb/gadget/built-in.o
 .note.GNU-stack
                0x0000000000000000        0x0 drivers/usb/gadget/built-in.o
 .debug_aranges
                0x0000000000000000       0xb0 drivers/usb/gadget/built-in.o
 .debug_info    0x0000000000000000     0x31b2 drivers/usb/gadget/built-in.o
 .debug_abbrev  0x0000000000000000      0x924 drivers/usb/gadget/built-in.o
 .debug_line    0x0000000000000000      0x76d drivers/usb/gadget/built-in.o
 .debug_frame   0x0000000000000000      0x170 drivers/usb/gadget/built-in.o
 .debug_str     0x0000000000000000     0x256b drivers/usb/gadget/built-in.o
 .debug_loc     0x0000000000000000     0x117b drivers/usb/gadget/built-in.o
 .debug_ranges  0x0000000000000000      0x220 drivers/usb/gadget/built-in.o
 .text          0x0000000000000000        0x0 drivers/usb/host/built-in.o
 .text.usb_setup_ehci_gadget
                0x0000000000000000       0x7c drivers/usb/host/built-in.o
 .text.usb_detect_change
                0x0000000000000000       0xa8 drivers/usb/host/built-in.o
 .text.rh_check_port_status
                0x0000000000000000       0x5c drivers/usb/host/built-in.o
 .data          0x0000000000000000        0x0 drivers/usb/host/built-in.o
 .bss           0x0000000000000000        0x0 drivers/usb/host/built-in.o
 .text          0x0000000000000000        0x0 env/built-in.o
 .text.env_flags_parse_varaccess_from_binflags
                0x0000000000000000       0x60 env/built-in.o
 .rodata.env_flags_parse_varaccess_from_binflags.str1.1
                0x0000000000000000       0x2c env/built-in.o
 .data          0x0000000000000000        0x0 env/built-in.o
 .bss           0x0000000000000000        0x0 env/built-in.o
 .text          0x0000000000000000        0x0 fs/built-in.o
 .text.fs_uuid  0x0000000000000000       0x28 fs/built-in.o
 .text.do_fs_uuid
                0x0000000000000000       0x9c fs/built-in.o
 .text.fat_register_device
                0x0000000000000000       0x80 fs/built-in.o
 .text.file_fat_read
                0x0000000000000000       0x34 fs/built-in.o
 .rodata.fat_register_device.str1.1
                0x0000000000000000       0x2b fs/built-in.o
 .data          0x0000000000000000        0x0 fs/built-in.o
 .bss           0x0000000000000000        0x0 fs/built-in.o
 .bss.ext4fs_symlinknest
                0x0000000000000000        0x4 fs/built-in.o
 .bss.g_parent_inode
                0x0000000000000000        0x8 fs/built-in.o
 .text          0x0000000000000000        0x0 lib/built-in.o
 .text.invalidate_icache_all
                0x0000000000000000        0x4 lib/built-in.o
 .text.__efi_nesting
                0x0000000000000000        0xc lib/built-in.o
 .text.efi_add_runtime_mmio
                0x0000000000000000       0x68 lib/built-in.o
 .text.efi_dp_str
                0x0000000000000000        0x4 lib/built-in.o
 .text.efi_dp_append
                0x0000000000000000       0xa0 lib/built-in.o
 .text.efi_dp_append_node
                0x0000000000000000       0xf4 lib/built-in.o
 .text.efi_dp_from_dev
                0x0000000000000000       0x4c lib/built-in.o
 .text.LzmaDec_InitDicAndState
                0x0000000000000000       0x28 lib/built-in.o
 .text.LzmaDec_DecodeToBuf
                0x0000000000000000      0x114 lib/built-in.o
 .text.LzmaDec_Free
                0x0000000000000000       0x38 lib/built-in.o
 .text.LzmaDec_Allocate
                0x0000000000000000       0xb4 lib/built-in.o
 .text._fdt_sw_check_header
                0x0000000000000000       0x1c lib/built-in.o
 .text._fdt_grab_space
                0x0000000000000000       0x5c lib/built-in.o
 .text.fdt_create
                0x0000000000000000       0x70 lib/built-in.o
 .text.fdt_resize
                0x0000000000000000       0xe4 lib/built-in.o
 .text.fdt_add_reservemap_entry
                0x0000000000000000       0x74 lib/built-in.o
 .text.fdt_finish_reservemap
                0x0000000000000000        0xc lib/built-in.o
 .text.fdt_begin_node
                0x0000000000000000       0x84 lib/built-in.o
 .text.fdt_end_node
                0x0000000000000000       0x44 lib/built-in.o
 .text.fdt_property_placeholder
                0x0000000000000000      0x120 lib/built-in.o
 .text.fdt_property
                0x0000000000000000       0x50 lib/built-in.o
 .text.fdt_finish
                0x0000000000000000      0x10c lib/built-in.o
 .text.fdt_create_empty_tree
                0x0000000000000000       0x78 lib/built-in.o
 .text.fdt_get_max_phandle
                0x0000000000000000       0x80 lib/built-in.o
 .text.fdt_get_path
                0x0000000000000000      0x16c lib/built-in.o
 .text.fdt_node_offset_by_prop_value
                0x0000000000000000       0xb4 lib/built-in.o
 .text.fdt_appendprop
                0x0000000000000000       0xec lib/built-in.o
 .text.fdt_pack
                0x0000000000000000       0x6c lib/built-in.o
 .text.fdt_remove_unused_strings
                0x0000000000000000       0xcc lib/built-in.o
 .text.fdt_setprop_inplace_namelen_partial
                0x0000000000000000       0x68 lib/built-in.o
 .text.fdt_setprop_inplace
                0x0000000000000000       0x88 lib/built-in.o
 .text.fdt_nop_property
                0x0000000000000000       0x48 lib/built-in.o
 .text.fdt_nop_node
                0x0000000000000000       0x68 lib/built-in.o
 .text.fdt_find_regions
                0x0000000000000000      0x35c lib/built-in.o
 .text.fdt_add_region
                0x0000000000000000       0x78 lib/built-in.o
 .text.fdt_add_alias_regions
                0x0000000000000000      0x1b0 lib/built-in.o
 .text.fdt_next_region
                0x0000000000000000      0x4d0 lib/built-in.o
 .text.fdt_first_region
                0x0000000000000000       0x38 lib/built-in.o
 .text.utf16_strcpy
                0x0000000000000000       0x18 lib/built-in.o
 .text.utf16_strdup
                0x0000000000000000       0x50 lib/built-in.o
 .text.crc7     0x0000000000000000       0x34 lib/built-in.o
 .text.crc8     0x0000000000000000       0x48 lib/built-in.o
 .text.fdtdec_get_uint
                0x0000000000000000       0x40 lib/built-in.o
 .text.lmb_dump_all
                0x0000000000000000        0x4 lib/built-in.o
 .text.lmb_is_reserved
                0x0000000000000000       0x48 lib/built-in.o
 .text.arch_lmb_reserve
                0x0000000000000000        0x4 lib/built-in.o
 .text.ldiv     0x0000000000000000       0x30 lib/built-in.o
 .text.byteReverse
                0x0000000000000000        0x4 lib/built-in.o
 .text.md5      0x0000000000000000       0x6c lib/built-in.o
 .text.rc4_encode
                0x0000000000000000       0xe0 lib/built-in.o
 .text.sha1_csum
                0x0000000000000000       0x48 lib/built-in.o
 .text.sha1_hmac
                0x0000000000000000      0x148 lib/built-in.o
 .text.sha1_self_test
                0x0000000000000000        0x8 lib/built-in.o
 .text.inflateInit_
                0x0000000000000000       0x10 lib/built-in.o
 .text.fdtdec_get_compatible
                0x0000000000000000       0x10 lib/built-in.o
 .text.fdtdec_get_uint64
                0x0000000000000000       0x40 lib/built-in.o
 .text.fdtdec_lookup
                0x0000000000000000       0x68 lib/built-in.o
 .text.fdtdec_next_compatible
                0x0000000000000000       0x10 lib/built-in.o
 .text.fdtdec_next_compatible_subnode
                0x0000000000000000       0x78 lib/built-in.o
 .text.fdtdec_next_alias
                0x0000000000000000       0xac lib/built-in.o
 .text.fdtdec_add_aliases_for_id
                0x0000000000000000      0x240 lib/built-in.o
 .text.fdtdec_find_aliases_for_id
                0x0000000000000000       0x60 lib/built-in.o
 .text.fdtdec_check_fdt
                0x0000000000000000       0x18 lib/built-in.o
 .text.fdtdec_get_int_array_count
                0x0000000000000000       0x64 lib/built-in.o
 .text.fdtdec_locate_array
                0x0000000000000000       0x28 lib/built-in.o
 .text.fdtdec_get_child_count
                0x0000000000000000       0x40 lib/built-in.o
 .text.fdtdec_get_byte_array
                0x0000000000000000       0x48 lib/built-in.o
 .text.fdtdec_locate_byte_array
                0x0000000000000000       0x24 lib/built-in.o
 .text.fdtdec_get_config_bool
                0x0000000000000000       0x54 lib/built-in.o
 .text.fdtdec_decode_region
                0x0000000000000000       0x64 lib/built-in.o
 .text.fdtdec_get_number
                0x0000000000000000       0x30 lib/built-in.o
 .text.fdtdec_get_addr_size_fixed
                0x0000000000000000       0xe0 lib/built-in.o
 .text.fdtdec_get_addr_size_auto_parent
                0x0000000000000000       0xa8 lib/built-in.o
 .text.fdtdec_get_addr_size_auto_noparent
                0x0000000000000000       0x7c lib/built-in.o
 .text.fdtdec_get_addr_size
                0x0000000000000000       0x20 lib/built-in.o
 .text.fdtdec_get_addr
                0x0000000000000000        0x8 lib/built-in.o
 .text.fdt_get_resource
                0x0000000000000000      0x114 lib/built-in.o
 .text.fdt_get_named_resource
                0x0000000000000000       0x64 lib/built-in.o
 .text.fdtdec_decode_memory_region
                0x0000000000000000      0x134 lib/built-in.o
 .text.fdtdec_setup_memory_size
                0x0000000000000000       0x5c lib/built-in.o
 .text.fdtdec_setup_memory_banksize
                0x0000000000000000       0x7c lib/built-in.o
 .text.print_freq
                0x0000000000000000      0x144 lib/built-in.o
 .text.iter_div_u64_rem
                0x0000000000000000       0x28 lib/built-in.o
 .text.copy_from_user
                0x0000000000000000       0x18 lib/built-in.o
 .text.kmalloc  0x0000000000000000       0x4c lib/built-in.o
 .text.get_mem  0x0000000000000000       0x2c lib/built-in.o
 .text.kmem_cache_alloc
                0x0000000000000000        0xc lib/built-in.o
 .text.membuff_purge
                0x0000000000000000        0xc lib/built-in.o
 .text.membuff_putraw
                0x0000000000000000       0x98 lib/built-in.o
 .text.membuff_putbyte
                0x0000000000000000       0x3c lib/built-in.o
 .text.membuff_getraw
                0x0000000000000000       0x84 lib/built-in.o
 .text.membuff_getbyte
                0x0000000000000000       0x3c lib/built-in.o
 .text.membuff_peekbyte
                0x0000000000000000       0x3c lib/built-in.o
 .text.membuff_get
                0x0000000000000000       0x9c lib/built-in.o
 .text.membuff_put
                0x0000000000000000       0x84 lib/built-in.o
 .text.membuff_isempty
                0x0000000000000000       0x10 lib/built-in.o
 .text.membuff_avail
                0x0000000000000000       0x54 lib/built-in.o
 .text.membuff_size
                0x0000000000000000       0x10 lib/built-in.o
 .text.membuff_makecontig
                0x0000000000000000       0xa0 lib/built-in.o
 .text.membuff_free
                0x0000000000000000       0x3c lib/built-in.o
 .text.membuff_readline
                0x0000000000000000       0xa8 lib/built-in.o
 .text.membuff_extend_by
                0x0000000000000000       0xe4 lib/built-in.o
 .text.membuff_init
                0x0000000000000000       0x10 lib/built-in.o
 .text.membuff_new
                0x0000000000000000       0x48 lib/built-in.o
 .text.membuff_uninit
                0x0000000000000000        0xc lib/built-in.o
 .text.membuff_dispose
                0x0000000000000000       0x28 lib/built-in.o
 .text.strchrnul
                0x0000000000000000       0x20 lib/built-in.o
 .text.strcspn  0x0000000000000000       0x38 lib/built-in.o
 .text.strspn   0x0000000000000000       0x3c lib/built-in.o
 .text.strtok   0x0000000000000000       0x7c lib/built-in.o
 .text.strswab  0x0000000000000000       0x44 lib/built-in.o
 .text.memchr_inv
                0x0000000000000000      0x108 lib/built-in.o
 .text.table_compute_checksum
                0x0000000000000000       0x2c lib/built-in.o
 .text.get_ticks
                0x0000000000000000       0x44 lib/built-in.o
 .text.srand    0x0000000000000000        0xc lib/built-in.o
 .text.vsnprintf
                0x0000000000000000       0x50 lib/built-in.o
 .text.scnprintf
                0x0000000000000000       0x74 lib/built-in.o
 .text.__assert_fail
                0x0000000000000000       0x18 lib/built-in.o
 .text.print_grouped_ull
                0x0000000000000000       0x9c lib/built-in.o
 .text.str2off  0x0000000000000000       0x50 lib/built-in.o
 .text.str2long
                0x0000000000000000       0x50 lib/built-in.o
 .text.strmhz   0x0000000000000000       0x68 lib/built-in.o
 .rodata.fdt_create_empty_tree.str1.1
                0x0000000000000000        0x1 lib/built-in.o
 .rodata.fdt_find_regions
                0x0000000000000000       0x12 lib/built-in.o
 .rodata.fdt_next_region
                0x0000000000000000       0x12 lib/built-in.o
 .rodata.fdt_add_alias_regions.str1.1
                0x0000000000000000        0x8 lib/built-in.o
 .rodata.crc7_syndrome_table
                0x0000000000000000      0x100 lib/built-in.o
 .rodata.sha1_der_prefix
                0x0000000000000000        0xf lib/built-in.o
 .rodata.sha256_der_prefix
                0x0000000000000000       0x13 lib/built-in.o
 .rodata.z_errmsg
                0x0000000000000000       0x50 lib/built-in.o
 .rodata.compat_names
                0x0000000000000000      0x140 lib/built-in.o
 .rodata.fdtdec_decode_memory_region.str1.1
                0x0000000000000000       0x25 lib/built-in.o
 .rodata.fdtdec_next_alias.str1.1
                0x0000000000000000        0x7 lib/built-in.o
 .rodata.names.6843
                0x0000000000000000        0x3 lib/built-in.o
 .rodata.__assert_fail.str1.1
                0x0000000000000000       0x22 lib/built-in.o
 .rodata.print_grouped_ull.str1.1
                0x0000000000000000        0xb lib/built-in.o
 .rodata.strmhz.str1.1
                0x0000000000000000        0xb lib/built-in.o
 .data          0x0000000000000000        0x0 lib/built-in.o
 .data.cur      0x0000000000000000        0x4 lib/built-in.o
 .data.current  0x0000000000000000        0x8 lib/built-in.o
 .bss           0x0000000000000000        0x0 lib/built-in.o
 .bss.___strtok
                0x0000000000000000        0x8 lib/built-in.o
 .text          0x0000000000000000        0x0 net/built-in.o
 .text.add_ip_checksums
                0x0000000000000000       0x40 net/built-in.o
 .text.eth_init_state_only
                0x0000000000000000       0x38 net/built-in.o
 .text.eth_is_active
                0x0000000000000000       0x40 net/built-in.o
 .text.net_get_udp_handler
                0x0000000000000000        0xc net/built-in.o
 .text.net_set_arp_handler
                0x0000000000000000       0x18 net/built-in.o
 .text.random_port
                0x0000000000000000       0x20 net/built-in.o
 .text.vlan_to_string
                0x0000000000000000       0x40 net/built-in.o
 .text.env_get_vlan
                0x0000000000000000       0x14 net/built-in.o
 .rodata.vlan_to_string.str1.1
                0x0000000000000000        0x8 net/built-in.o
 .data          0x0000000000000000        0x0 net/built-in.o
 .data.tftp_timeout_ms
                0x0000000000000000        0x8 net/built-in.o
 .bss           0x0000000000000000        0x0 net/built-in.o
 .text          0x0000000000000000        0x0 test/dm/built-in.o
 .data          0x0000000000000000        0x0 test/dm/built-in.o
 .bss           0x0000000000000000        0x0 test/dm/built-in.o

Memory Configuration

Name             Origin             Length             Attributes
*default*        0x0000000000000000 0xffffffffffffffff

Linker script and memory map

Address of section .text set to 0x4a000000
                0x0000000000000000                . = 0x0
                0x0000000000000000                . = ALIGN (0x8)

.text           0x000000004a000000    0x52b6c
 *(.__image_copy_start)
 .__image_copy_start
                0x000000004a000000        0x0 arch/arm/lib/built-in.o
                0x000000004a000000                __image_copy_start
 arch/arm/cpu/armv8/start.o(.text*)
 .text          0x000000004a000000      0x1c0 arch/arm/cpu/armv8/start.o
                0x000000004a000000                _start
                0x000000004a0000b8                _TEXT_BASE
                0x000000004a0000c0                _end_ofs
                0x000000004a0000c8                _bss_start_ofs
                0x000000004a0000d0                _bss_end_ofs
                0x000000004a0000dc                save_boot_params_ret
                0x000000004a000144                apply_core_errata
                0x000000004a000174                smp_kick_all_cpus
                0x000000004a000178                c_runtime_cpu_setup
                0x000000004a0001b0                save_boot_params
 *(.text*)
 *fill*         0x000000004a0001c0      0x640 
 .text          0x000000004a000800      0x854 arch/arm/cpu/armv8/built-in.o
                0x000000004a000800                vectors
                0x000000004a001038                lowlevel_init
 .text.cleanup_before_linux
                0x000000004a001054       0x28 arch/arm/cpu/armv8/built-in.o
                0x000000004a001054                cleanup_before_linux
 .text.get_tbclk
                0x000000004a00107c        0x8 arch/arm/cpu/armv8/built-in.o
                0x000000004a00107c                get_tbclk
 .text.get_ticks
                0x000000004a001084       0x10 arch/arm/cpu/armv8/built-in.o
                0x000000004a001084                get_ticks
 .text.count_required_pts
                0x000000004a001094       0xf4 arch/arm/cpu/armv8/built-in.o
 .text.create_table
                0x000000004a001188       0x70 arch/arm/cpu/armv8/built-in.o
 .text.split_block
                0x000000004a0011f8       0x9c arch/arm/cpu/armv8/built-in.o
 .text.get_tcr  0x000000004a001294       0xe8 arch/arm/cpu/armv8/built-in.o
                0x000000004a001294                get_tcr
 .text.find_pte
                0x000000004a00137c       0x94 arch/arm/cpu/armv8/built-in.o
 .text.get_page_table_size
                0x000000004a001410       0x48 arch/arm/cpu/armv8/built-in.o
                0x000000004a001410                get_page_table_size
 .text.setup_pgtables
                0x000000004a001458      0x15c arch/arm/cpu/armv8/built-in.o
                0x000000004a001458                setup_pgtables
 .text.mmu_setup
                0x000000004a0015b4      0x13c arch/arm/cpu/armv8/built-in.o
                0x000000004a0015b4                mmu_setup
 .text.invalidate_dcache_all
                0x000000004a0016f0       0x14 arch/arm/cpu/armv8/built-in.o
                0x000000004a0016f0                invalidate_dcache_all
 .text.invalidate_dcache_range
                0x000000004a001704        0x4 arch/arm/cpu/armv8/built-in.o
                0x000000004a001704                invalidate_dcache_range
 .text.flush_dcache_range
                0x000000004a001708        0x4 arch/arm/cpu/armv8/built-in.o
                0x000000004a001708                flush_dcache_range
 .text.dcache_enable
                0x000000004a00170c      0x110 arch/arm/cpu/armv8/built-in.o
                0x000000004a00170c                dcache_enable
 .text.dcache_disable
                0x000000004a00181c       0x84 arch/arm/cpu/armv8/built-in.o
                0x000000004a00181c                dcache_disable
 .text.dcache_status
                0x000000004a0018a0       0x34 arch/arm/cpu/armv8/built-in.o
                0x000000004a0018a0                dcache_status
 .text.icache_disable
                0x000000004a0018d4       0x64 arch/arm/cpu/armv8/built-in.o
                0x000000004a0018d4                icache_disable
 .text.invalidate_icache_all
                0x000000004a001938       0x14 arch/arm/cpu/armv8/built-in.o
                0x000000004a001938                invalidate_icache_all
 .text.icache_enable
                0x000000004a00194c       0x74 arch/arm/cpu/armv8/built-in.o
                0x000000004a00194c                icache_enable
 .text.enable_caches
                0x000000004a0019c0       0x14 arch/arm/cpu/armv8/built-in.o
                0x000000004a0019c0                enable_caches
 .text.__asm_dcache_level
                0x000000004a0019d4       0x64 arch/arm/cpu/armv8/built-in.o
                0x000000004a0019d4                __asm_dcache_level
 .text.__asm_dcache_all
                0x000000004a001a38       0x60 arch/arm/cpu/armv8/built-in.o
                0x000000004a001a38                __asm_dcache_all
 .text.__asm_flush_dcache_all
                0x000000004a001a98        0x8 arch/arm/cpu/armv8/built-in.o
                0x000000004a001a98                __asm_flush_dcache_all
 .text.__asm_invalidate_dcache_all
                0x000000004a001aa0        0x8 arch/arm/cpu/armv8/built-in.o
                0x000000004a001aa0                __asm_invalidate_dcache_all
 .text.__asm_flush_dcache_range
                0x000000004a001aa8       0x34 arch/arm/cpu/armv8/built-in.o
                0x000000004a001aa8                __asm_flush_dcache_range
 .text.__asm_invalidate_dcache_range
                0x000000004a001adc       0x30 arch/arm/cpu/armv8/built-in.o
                0x000000004a001adc                __asm_invalidate_dcache_range
 .text.__asm_invalidate_icache_all
                0x000000004a001b0c        0xc arch/arm/cpu/armv8/built-in.o
                0x000000004a001b0c                __asm_invalidate_icache_all
 .text.__asm_invalidate_l3_dcache
                0x000000004a001b18        0x8 arch/arm/cpu/armv8/built-in.o
                0x000000004a001b18                __asm_invalidate_l3_dcache
 .text.__asm_flush_l3_dcache
                0x000000004a001b20        0x8 arch/arm/cpu/armv8/built-in.o
                0x000000004a001b20                __asm_flush_l3_dcache
 .text.__asm_invalidate_l3_icache
                0x000000004a001b28        0x8 arch/arm/cpu/armv8/built-in.o
                0x000000004a001b28                __asm_invalidate_l3_icache
 .text.__asm_invalidate_tlb_all
                0x000000004a001b30       0x4c arch/arm/cpu/armv8/built-in.o
                0x000000004a001b30                __asm_invalidate_tlb_all
 *fill*         0x000000004a001b7c        0x4 
 .text.armv8_switch_to_el2
                0x000000004a001b80       0xb8 arch/arm/cpu/armv8/built-in.o
                0x000000004a001b80                armv8_switch_to_el2
 .text.armv8_el2_to_aarch32
                0x000000004a001c38        0x4 arch/arm/cpu/armv8/built-in.o
                0x000000004a001c38                armv8_el2_to_aarch32
 .text.reset_misc
                0x000000004a001c3c        0xc arch/arm/cpu/armv8/built-in.o
                0x000000004a001c3c                reset_misc
 .text          0x000000004a001c48      0x140 arch/arm/lib/built-in.o
                0x000000004a001c48                _main
                0x000000004a001cc8                relocate_code
 .text.arch_fixup_fdt
                0x000000004a001d88       0x30 arch/arm/lib/built-in.o
                0x000000004a001d88                arch_fixup_fdt
 .text.arch_lmb_reserve
                0x000000004a001db8       0x24 arch/arm/lib/built-in.o
                0x000000004a001db8                arch_lmb_reserve
 .text.board_quiesce_devices
                0x000000004a001ddc        0x4 arch/arm/lib/built-in.o
                0x000000004a001ddc                board_quiesce_devices
 .text.setup_board_tags
                0x000000004a001de0        0x4 arch/arm/lib/built-in.o
                0x000000004a001de0                setup_board_tags
 .text.boot_prep_linux
                0x000000004a001de4      0x1d0 arch/arm/lib/built-in.o
 .text.update_os_arch_secondary_cores
                0x000000004a001fb4        0x4 arch/arm/lib/built-in.o
                0x000000004a001fb4                update_os_arch_secondary_cores
 .text.boot_jump_linux
                0x000000004a001fb8       0xc0 arch/arm/lib/built-in.o
 .text.do_bootm_linux
                0x000000004a002078       0x74 arch/arm/lib/built-in.o
                0x000000004a002078                do_bootm_linux
 .text.boot_prep_vxworks
                0x000000004a0020ec       0x50 arch/arm/lib/built-in.o
                0x000000004a0020ec                boot_prep_vxworks
 .text.boot_jump_vxworks
                0x000000004a00213c        0xc arch/arm/lib/built-in.o
                0x000000004a00213c                boot_jump_vxworks
 .text.arch_reserve_stacks
                0x000000004a002148       0x10 arch/arm/lib/built-in.o
                0x000000004a002148                arch_reserve_stacks
 .text.interrupt_init
                0x000000004a002158        0x8 arch/arm/lib/built-in.o
                0x000000004a002158                interrupt_init
 .text.enable_interrupts
                0x000000004a002160        0x4 arch/arm/lib/built-in.o
                0x000000004a002160                enable_interrupts
 .text.disable_interrupts
                0x000000004a002164        0x8 arch/arm/lib/built-in.o
                0x000000004a002164                disable_interrupts
 .text.show_regs
                0x000000004a00216c       0x80 arch/arm/lib/built-in.o
                0x000000004a00216c                show_regs
 .text.do_bad_sync
                0x000000004a0021ec       0x3c arch/arm/lib/built-in.o
                0x000000004a0021ec                do_bad_sync
 .text.do_bad_irq
                0x000000004a002228       0x3c arch/arm/lib/built-in.o
                0x000000004a002228                do_bad_irq
 .text.do_bad_fiq
                0x000000004a002264       0x3c arch/arm/lib/built-in.o
                0x000000004a002264                do_bad_fiq
 .text.do_bad_error
                0x000000004a0022a0       0x3c arch/arm/lib/built-in.o
                0x000000004a0022a0                do_bad_error
 .text.do_sync  0x000000004a0022dc       0x3c arch/arm/lib/built-in.o
                0x000000004a0022dc                do_sync
 .text.do_irq   0x000000004a002318       0x3c arch/arm/lib/built-in.o
                0x000000004a002318                do_irq
 .text.do_fiq   0x000000004a002354       0x3c arch/arm/lib/built-in.o
                0x000000004a002354                do_fiq
 .text.do_error
                0x000000004a002390       0x3c arch/arm/lib/built-in.o
                0x000000004a002390                do_error
 .text.do_reset
                0x000000004a0023cc       0x38 arch/arm/lib/built-in.o
                0x000000004a0023cc                do_reset
 .text.flush_cache
                0x000000004a002404        0x8 arch/arm/lib/built-in.o
                0x000000004a002404                flush_cache
 .text.s_init   0x000000004a00240c       0x60 arch/arm/mach-sunxi/built-in.o
                0x000000004a00240c                s_init
 .text.sunxi_get_boot_device
                0x000000004a00246c       0x90 arch/arm/mach-sunxi/built-in.o
                0x000000004a00246c                sunxi_get_boot_device
 .text.reset_cpu
                0x000000004a0024fc       0x2c arch/arm/mach-sunxi/built-in.o
                0x000000004a0024fc                reset_cpu
 .text.clock_init_sec
                0x000000004a002528       0x30 arch/arm/mach-sunxi/built-in.o
                0x000000004a00252c                clock_init_sec
 .text.clock_init
                0x000000004a002558       0x1c arch/arm/mach-sunxi/built-in.o
                0x000000004a002558                clock_init
 .text.print_cpuinfo
                0x000000004a002574       0x20 arch/arm/mach-sunxi/built-in.o
                0x000000004a002574                print_cpuinfo
 .text.sunxi_get_sid
                0x000000004a002594       0x3c arch/arm/mach-sunxi/built-in.o
                0x000000004a002594                sunxi_get_sid
 .text.sunxi_gpio_set_cfgbank
                0x000000004a0025d0       0x2c arch/arm/mach-sunxi/built-in.o
                0x000000004a0025d0                sunxi_gpio_set_cfgbank
 .text.sunxi_gpio_set_cfgpin
                0x000000004a0025fc       0x3c arch/arm/mach-sunxi/built-in.o
                0x000000004a0025fc                sunxi_gpio_set_cfgpin
 .text.sunxi_gpio_get_cfgbank
                0x000000004a002638       0x20 arch/arm/mach-sunxi/built-in.o
                0x000000004a002638                sunxi_gpio_get_cfgbank
 .text.sunxi_gpio_set_drv
                0x000000004a002658       0x64 arch/arm/mach-sunxi/built-in.o
                0x000000004a002658                sunxi_gpio_set_drv
 .text.sunxi_gpio_set_pull
                0x000000004a0026bc       0x64 arch/arm/mach-sunxi/built-in.o
                0x000000004a0026bc                sunxi_gpio_set_pull
 .text.sunxi_usb_phy_init
                0x000000004a002720       0xa0 arch/arm/mach-sunxi/built-in.o
                0x000000004a002720                sunxi_usb_phy_init
 .text.sunxi_usb_phy_exit
                0x000000004a0027c0       0x6c arch/arm/mach-sunxi/built-in.o
                0x000000004a0027c0                sunxi_usb_phy_exit
 .text.sunxi_usb_phy_power_on
                0x000000004a00282c       0x90 arch/arm/mach-sunxi/built-in.o
                0x000000004a00282c                sunxi_usb_phy_power_on
 .text.sunxi_usb_phy_probe
                0x000000004a0028bc      0x10c arch/arm/mach-sunxi/built-in.o
                0x000000004a0028bc                sunxi_usb_phy_probe
 .text.clock_init_uart
                0x000000004a0029c8       0x38 arch/arm/mach-sunxi/built-in.o
                0x000000004a0029c8                clock_init_uart
 .text.clock_set_pll3
                0x000000004a002a00       0x4c arch/arm/mach-sunxi/built-in.o
                0x000000004a002a00                clock_set_pll3
 .text.clock_set_pll3_factors
                0x000000004a002a4c       0x3c arch/arm/mach-sunxi/built-in.o
                0x000000004a002a4c                clock_set_pll3_factors
 .text.clock_set_pll10
                0x000000004a002a88       0x5c arch/arm/mach-sunxi/built-in.o
                0x000000004a002a88                clock_set_pll10
 .text.clock_get_pll6
                0x000000004a002ae4       0x30 arch/arm/mach-sunxi/built-in.o
                0x000000004a002ae4                clock_get_pll6
 .text.setup_environment
                0x000000004a002b14      0x14c board/sunxi/built-in.o
 .text.board_init
                0x000000004a002c60       0x90 board/sunxi/built-in.o
                0x000000004a002c60                board_init
 .text.dram_init
                0x000000004a002cf0       0x30 board/sunxi/built-in.o
                0x000000004a002cf0                dram_init
 .text.board_mmc_init
                0x000000004a002d20       0x5c board/sunxi/built-in.o
                0x000000004a002d20                board_mmc_init
 .text.get_board_serial
                0x000000004a002d7c       0x48 board/sunxi/built-in.o
                0x000000004a002d7c                get_board_serial
 .text.misc_init_r
                0x000000004a002dc4      0x138 board/sunxi/built-in.o
                0x000000004a002dc4                misc_init_r
 .text.ft_board_setup
                0x000000004a002efc       0x24 board/sunxi/built-in.o
                0x000000004a002efc                ft_board_setup
 .text.do_go_exec
                0x000000004a002f20       0x10 cmd/built-in.o
                0x000000004a002f20                do_go_exec
 .text.do_go    0x000000004a002f30       0x84 cmd/built-in.o
 .text.do_bootm
                0x000000004a002fb4      0x110 cmd/built-in.o
                0x000000004a002fb4                do_bootm
 .text.do_bootd
                0x000000004a0030c4       0x2c cmd/built-in.o
                0x000000004a0030c4                do_bootd
 .text.image_info
                0x000000004a0030f0      0x12c cmd/built-in.o
 .text.do_iminfo
                0x000000004a00321c       0x80 cmd/built-in.o
 .text.bootm_maybe_autostart
                0x000000004a00329c       0x74 cmd/built-in.o
                0x000000004a00329c                bootm_maybe_autostart
 .text.do_help  0x000000004a003310       0x3c cmd/built-in.o
 .text.do_version
                0x000000004a00334c       0x40 cmd/built-in.o
 .text.blk_common_cmd
                0x000000004a00338c      0x32c cmd/built-in.o
                0x000000004a00338c                blk_common_cmd
 .text.source   0x000000004a0036b8      0x1c8 cmd/built-in.o
                0x000000004a0036b8                source
 .text.do_source
                0x000000004a003880       0x74 cmd/built-in.o
 .text.print_num
                0x000000004a0038f4       0x14 cmd/built-in.o
 .text.do_bdinfo
                0x000000004a003908      0x104 cmd/built-in.o
 .text.efi_do_enter
                0x000000004a003a0c       0x58 cmd/built-in.o
 .text.efi_init_obj_list
                0x000000004a003a64       0x34 cmd/built-in.o
 .text.efi_run_in_el2
                0x000000004a003a98       0x3c cmd/built-in.o
 .text.do_bootefi_exec
                0x000000004a003ad4      0x3a8 cmd/built-in.o
 .text.do_bootefi
                0x000000004a003e7c      0x134 cmd/built-in.o
 .text.efi_set_bootdev
                0x000000004a003fb0      0x118 cmd/built-in.o
                0x000000004a003fb0                efi_set_bootdev
 .text.do_booti
                0x000000004a0040c8      0x194 cmd/built-in.o
                0x000000004a0040c8                do_booti
 .text.do_coninfo
                0x000000004a00425c       0xdc cmd/built-in.o
 .text.do_echo  0x000000004a004338       0xd8 cmd/built-in.o
 .text.load_elf_image_shdr
                0x000000004a004410       0xa8 cmd/built-in.o
 .text.valid_elf_image
                0x000000004a0044b8       0x54 cmd/built-in.o
                0x000000004a0044b8                valid_elf_image
 .text.do_bootelf
                0x000000004a00450c      0x1c4 cmd/built-in.o
                0x000000004a00450c                do_bootelf
 .text.do_bootvx
                0x000000004a0046d0      0x370 cmd/built-in.o
                0x000000004a0046d0                do_bootvx
 .text.do_exit  0x000000004a004a40       0x40 cmd/built-in.o
 .text.do_ext4_size
                0x000000004a004a80        0x8 cmd/built-in.o
                0x000000004a004a80                do_ext4_size
 .text.do_ext4_load
                0x000000004a004a88        0x8 cmd/built-in.o
                0x000000004a004a88                do_ext4_load
 .text.do_ext4_ls
                0x000000004a004a90        0x8 cmd/built-in.o
                0x000000004a004a90                do_ext4_ls
 .text.do_ext2load
                0x000000004a004a98        0x8 cmd/built-in.o
                0x000000004a004a98                do_ext2load
 .text.do_ext2ls
                0x000000004a004aa0        0x8 cmd/built-in.o
 .text.do_fat_size
                0x000000004a004aa8        0x8 cmd/built-in.o
                0x000000004a004aa8                do_fat_size
 .text.do_fat_fsload
                0x000000004a004ab0        0x8 cmd/built-in.o
                0x000000004a004ab0                do_fat_fsload
 .text.do_fat_ls
                0x000000004a004ab8        0x8 cmd/built-in.o
 .text.do_fat_fsinfo
                0x000000004a004ac0       0x98 cmd/built-in.o
 .text.do_fat_fswrite
                0x000000004a004b58      0x120 cmd/built-in.o
 .text.fdt_valid
                0x000000004a004c78       0xcc cmd/built-in.o
 .text.is_printable_string
                0x000000004a004d44       0x88 cmd/built-in.o
 .text.print_data
                0x000000004a004dcc      0x1b8 cmd/built-in.o
 .text.set_working_fdt_addr
                0x000000004a004f84       0x18 cmd/built-in.o
                0x000000004a004f84                set_working_fdt_addr
 .text.do_fdt   0x000000004a004f9c      0xf54 cmd/built-in.o
 .text.do_size_wrapper
                0x000000004a005ef0        0x8 cmd/built-in.o
 .text.do_load_wrapper
                0x000000004a005ef8       0x80 cmd/built-in.o
 .text.do_save_wrapper
                0x000000004a005f78        0x8 cmd/built-in.o
 .text.do_ls_wrapper
                0x000000004a005f80        0x8 cmd/built-in.o
 .text.do_fstype_wrapper
                0x000000004a005f88        0x4 cmd/built-in.o
 .text.gpio_get_description
                0x000000004a005f8c       0xd0 cmd/built-in.o
 .text.do_gpio  0x000000004a00605c      0x35c cmd/built-in.o
 .text.evalexp  0x000000004a0063b8       0x98 cmd/built-in.o
 .text.evalstr  0x000000004a006450       0x5c cmd/built-in.o
 .text.binary_test
                0x000000004a0064ac      0x1ac cmd/built-in.o
 .text.do_itest
                0x000000004a006658       0x90 cmd/built-in.o
 .text.bin_data_init
                0x000000004a0066e8       0x1c cmd/built-in.o
 .text.k_data_save
                0x000000004a006704       0x34 cmd/built-in.o
 .text.k_data_restore
                0x000000004a006738       0x34 cmd/built-in.o
 .text.getcxmodem
                0x000000004a00676c       0x24 cmd/built-in.o
 .text.load_serial_ymodem
                0x000000004a006790       0xf0 cmd/built-in.o
 .text.bin_data_char
                0x000000004a006880       0x28 cmd/built-in.o
 .text.chk1.constprop.1
                0x000000004a0068a8       0x34 cmd/built-in.o
 .text.s1_sendpacket.constprop.2
                0x000000004a0068dc       0x60 cmd/built-in.o
 .text.load_serial
                0x000000004a00693c      0x1e4 cmd/built-in.o
 .text.do_load_serial
                0x000000004a006b20       0xe8 cmd/built-in.o
 .text.do_load_serial_bin
                0x000000004a006c08      0x7d0 cmd/built-in.o
 .text.do_mem_loop
                0x000000004a0073d8      0x144 cmd/built-in.o
 .text.do_mem_md
                0x000000004a00751c       0xec cmd/built-in.o
 .text.do_mem_cmp
                0x000000004a007608      0x1a0 cmd/built-in.o
 .text.do_mem_base
                0x000000004a0077a8       0x4c cmd/built-in.o
 .text.do_mem_mw
                0x000000004a0077f4      0x100 cmd/built-in.o
 .text.do_mem_cp
                0x000000004a0078f4       0xc4 cmd/built-in.o
 .text.do_mem_crc
                0x000000004a0079b8       0x30 cmd/built-in.o
 .text.mod_mem.isra.0
                0x000000004a0079e8      0x1cc cmd/built-in.o
 .text.do_mem_mm
                0x000000004a007bb4        0x8 cmd/built-in.o
 .text.do_mem_nm
                0x000000004a007bbc        0x8 cmd/built-in.o
 .text.extract_range
                0x000000004a007bc4       0xf8 cmd/built-in.o
 .text.do_mii   0x000000004a007cbc      0x8e0 cmd/built-in.o
 .text.do_mdio  0x000000004a00859c      0x4a4 cmd/built-in.o
 .text.do_sleep
                0x000000004a008a40       0xe4 cmd/built-in.o
 .text.do_mmcops
                0x000000004a008b24       0xd0 cmd/built-in.o
 .text.init_mmc_device
                0x000000004a008bf4       0x64 cmd/built-in.o
 .text.do_mmc_rescan
                0x000000004a008c58       0x28 cmd/built-in.o
 .text.do_mmc_hwpartition
                0x000000004a008c80      0x4f4 cmd/built-in.o
 .text.do_mmc_list
                0x000000004a009174       0x1c cmd/built-in.o
 .text.do_mmc_dev
                0x000000004a009190      0x148 cmd/built-in.o
 .text.do_mmc_read
                0x000000004a0092d8       0xfc cmd/built-in.o
 .text.do_mmc_part
                0x000000004a0093d4       0x6c cmd/built-in.o
 .text.do_mmc_erase
                0x000000004a009440      0x108 cmd/built-in.o
 .text.do_mmc_write
                0x000000004a009548      0x120 cmd/built-in.o
 .text.do_mmcinfo
                0x000000004a009668      0x380 cmd/built-in.o
 .text.do_mmc_setdsr
                0x000000004a0099e8       0xb8 cmd/built-in.o
 .text.netboot_common
                0x000000004a009aa0      0x268 cmd/built-in.o
 .text.do_bootp
                0x000000004a009d08        0xc cmd/built-in.o
 .text.do_dhcp  0x000000004a009d14        0xc cmd/built-in.o
 .text.do_nfs   0x000000004a009d20        0xc cmd/built-in.o
 .text.do_tftpb
                0x000000004a009d2c       0x58 cmd/built-in.o
                0x000000004a009d2c                do_tftpb
 .text.do_ping  0x000000004a009d84       0x7c cmd/built-in.o
 .text.do_part_list
                0x000000004a009e00      0x18c cmd/built-in.o
 .text.do_part_start
                0x000000004a009f8c       0xd4 cmd/built-in.o
 .text.do_part_size
                0x000000004a00a060       0xd4 cmd/built-in.o
 .text.do_part  0x000000004a00a134      0x118 cmd/built-in.o
 .text.eol_or_eof
                0x000000004a00a24c       0x24 cmd/built-in.o
 .text.do_pxe   0x000000004a00a270       0x8c cmd/built-in.o
 .text.label_print
                0x000000004a00a2fc       0x1c cmd/built-in.o
 .text.do_get_tftp
                0x000000004a00a318       0x3c cmd/built-in.o
 .text.from_env
                0x000000004a00a354       0x3c cmd/built-in.o
 .text.get_string
                0x000000004a00a390       0xec cmd/built-in.o
 .text.label_destroy
                0x000000004a00a47c       0x68 cmd/built-in.o
 .text.destroy_pxe_menu
                0x000000004a00a4e4       0x68 cmd/built-in.o
 .text.get_token
                0x000000004a00a54c      0x134 cmd/built-in.o
 .text.parse_sliteral
                0x000000004a00a680       0x6c cmd/built-in.o
 .text.parse_integer
                0x000000004a00a6ec       0x84 cmd/built-in.o
 .text.do_get_any
                0x000000004a00a770       0x44 cmd/built-in.o
 .text.do_get_fat
                0x000000004a00a7b4       0x40 cmd/built-in.o
 .text.do_get_ext2
                0x000000004a00a7f4       0x40 cmd/built-in.o
 .text.format_mac_pxe.constprop.6
                0x000000004a00a834       0x6c cmd/built-in.o
 .text.get_relfile
                0x000000004a00a8a0      0x138 cmd/built-in.o
 .text.get_pxe_file
                0x000000004a00a9d8       0x60 cmd/built-in.o
 .text.handle_include
                0x000000004a00aa38       0xc4 cmd/built-in.o
 .text.parse_pxefile_top
                0x000000004a00aafc      0x3f8 cmd/built-in.o
 .text.parse_pxefile
                0x000000004a00aef4       0x7c cmd/built-in.o
 .text.get_pxelinux_path
                0x000000004a00af70       0x98 cmd/built-in.o
 .text.do_pxe_get
                0x000000004a00b008      0x168 cmd/built-in.o
 .text.get_relfile_envaddr
                0x000000004a00b170       0x5c cmd/built-in.o
 .text.label_boot
                0x000000004a00b1cc      0x574 cmd/built-in.o
 .text.handle_pxe_menu
                0x000000004a00b740      0x174 cmd/built-in.o
 .text.do_pxe_boot
                0x000000004a00b8b4       0xf0 cmd/built-in.o
 .text.do_sysboot
                0x000000004a00b9a4      0x1f0 cmd/built-in.o
 .text.substitute
                0x000000004a00bb94      0x114 cmd/built-in.o
 .text.get_arg  0x000000004a00bca8       0x68 cmd/built-in.o
 .text.regex_sub
                0x000000004a00bd10      0x2d0 cmd/built-in.o
 .text.do_setexpr
                0x000000004a00bfe0      0x188 cmd/built-in.o
 .text.do_false
                0x000000004a00c168        0x8 cmd/built-in.o
 .text.do_true  0x000000004a00c170        0x8 cmd/built-in.o
 .text.do_test  0x000000004a00c178      0x360 cmd/built-in.o
 .text.do_unzip
                0x000000004a00c4d8       0xbc cmd/built-in.o
 .text.do_gzwrite
                0x000000004a00c594      0x118 cmd/built-in.o
 .text.do_lzmadec
                0x000000004a00c6ac       0xbc cmd/built-in.o
 .text.usb_get_class_desc
                0x000000004a00c768       0xc0 cmd/built-in.o
 .text.usb_display_class_sub
                0x000000004a00c828      0x18c cmd/built-in.o
 .text.usb_display_desc
                0x000000004a00c9b4      0x140 cmd/built-in.o
 .text.usb_show_tree_graph
                0x000000004a00caf4      0x1ec cmd/built-in.o
 .text.usb_show_subtree
                0x000000004a00cce0       0x38 cmd/built-in.o
 .text.usb_for_each_root_dev
                0x000000004a00cd18       0x68 cmd/built-in.o
 .text.usb_display_string
                0x000000004a00cd80       0x4c cmd/built-in.o
 .text.usb_display_config
                0x000000004a00cdcc      0x26c cmd/built-in.o
 .text.usb_show_info
                0x000000004a00d038       0x58 cmd/built-in.o
 .text.usb_find_device
                0x000000004a00d090       0xb0 cmd/built-in.o
 .text.do_usbboot
                0x000000004a00d140        0xc cmd/built-in.o
 .text.do_usb_start
                0x000000004a00d14c       0x30 cmd/built-in.o
 .text.usb_show_tree
                0x000000004a00d17c        0xc cmd/built-in.o
                0x000000004a00d17c                usb_show_tree
 .text.do_usb   0x000000004a00d188      0x404 cmd/built-in.o
 .text.common_diskboot
                0x000000004a00d58c      0x2a0 cmd/built-in.o
                0x000000004a00d58c                common_diskboot
 .text.do_imgextract
                0x000000004a00d82c      0x3b8 cmd/built-in.o
 .text.extract_val
                0x000000004a00dbe4       0xac cmd/built-in.o
 .text.extract_env
                0x000000004a00dc90       0xf8 cmd/built-in.o
 .text.set_gpt_info.isra.1.constprop.2
                0x000000004a00dd88      0x45c cmd/built-in.o
 .text.do_gpt   0x000000004a00e1e4      0x2e8 cmd/built-in.o
 .text.do_env_delete
                0x000000004a00e4cc       0xbc cmd/built-in.o
 .text.do_env_exists
                0x000000004a00e588       0x60 cmd/built-in.o
 .text.do_env_save
                0x000000004a00e5e8       0x30 cmd/built-in.o
 .text.do_env   0x000000004a00e618       0x80 cmd/built-in.o
 .text.env_print
                0x000000004a00e698       0xc8 cmd/built-in.o
 .text.do_env_print
                0x000000004a00e760       0xe0 cmd/built-in.o
 .text.do_env_import
                0x000000004a00e840      0x258 cmd/built-in.o
 .text.do_env_default
                0x000000004a00ea98       0x90 cmd/built-in.o
 .text._do_env_set.isra.0
                0x000000004a00eb28      0x1b8 cmd/built-in.o
 .text.do_env_set
                0x000000004a00ece0       0x20 cmd/built-in.o
 .text.get_env_id
                0x000000004a00ed00        0xc cmd/built-in.o
                0x000000004a00ed00                get_env_id
 .text.env_set  0x000000004a00ed0c       0x58 cmd/built-in.o
                0x000000004a00ed0c                env_set
 .text.env_set_ulong
                0x000000004a00ed64       0x2c cmd/built-in.o
                0x000000004a00ed64                env_set_ulong
 .text.env_set_hex
                0x000000004a00ed90       0x3c cmd/built-in.o
                0x000000004a00ed90                env_set_hex
 .text.do_env_export
                0x000000004a00edcc      0x214 cmd/built-in.o
 .text.envmatch
                0x000000004a00efe0       0x7c cmd/built-in.o
                0x000000004a00efe0                envmatch
 .text.env_get_f
                0x000000004a00f05c       0xe8 cmd/built-in.o
                0x000000004a00f05c                env_get_f
 .text.env_get  0x000000004a00f144       0x74 cmd/built-in.o
                0x000000004a00f144                env_get
 .text.env_get_hex
                0x000000004a00f1b8       0x48 cmd/built-in.o
                0x000000004a00f1b8                env_get_hex
 .text.env_get_ulong
                0x000000004a00f200       0x40 cmd/built-in.o
                0x000000004a00f200                env_get_ulong
 .text.do_env_edit.part.2
                0x000000004a00f240       0xb8 cmd/built-in.o
 .text.do_env_edit
                0x000000004a00f2f8       0x24 cmd/built-in.o
 .text.board_init_f_alloc_reserve
                0x000000004a00f31c        0xc common/built-in.o
                0x000000004a00f31c                board_init_f_alloc_reserve
 .text.board_init_f_init_reserve
                0x000000004a00f328       0x30 common/built-in.o
                0x000000004a00f328                board_init_f_init_reserve
 .text.show_boot_progress
                0x000000004a00f358        0x8 common/built-in.o
                0x000000004a00f358                show_boot_progress
 .text.main_loop
                0x000000004a00f360       0x6c common/built-in.o
                0x000000004a00f360                main_loop
 .text.mdelay   0x000000004a00f3cc       0x30 common/built-in.o
 .text.dummy    0x000000004a00f3fc        0x4 common/built-in.o
 .text.get_version
                0x000000004a00f400        0x8 common/built-in.o
                0x000000004a00f400                get_version
 .text.jumptable_init
                0x000000004a00f408      0x1f0 common/built-in.o
                0x000000004a00f408                jumptable_init
 .text.hash_finish_crc32
                0x000000004a00f5f8       0x38 common/built-in.o
 .text.hash_update_crc32
                0x000000004a00f630       0x34 common/built-in.o
 .text.hash_init_crc32
                0x000000004a00f664       0x30 common/built-in.o
 .text.hash_finish_sha256
                0x000000004a00f694       0x48 common/built-in.o
 .text.hash_update_sha256
                0x000000004a00f6dc       0x24 common/built-in.o
 .text.hash_init_sha256
                0x000000004a00f700       0x34 common/built-in.o
 .text.hash_finish_sha1
                0x000000004a00f734       0x48 common/built-in.o
 .text.hash_update_sha1
                0x000000004a00f77c       0x24 common/built-in.o
 .text.hash_init_sha1
                0x000000004a00f7a0       0x34 common/built-in.o
 .text.hash_lookup_algo
                0x000000004a00f7d4       0x78 common/built-in.o
                0x000000004a00f7d4                hash_lookup_algo
 .text.hash_command
                0x000000004a00f84c      0x1dc common/built-in.o
                0x000000004a00f84c                hash_command
 .text.b_reset  0x000000004a00fa28       0x18 common/built-in.o
 .text.static_get
                0x000000004a00fa40       0x1c common/built-in.o
 .text.file_peek
                0x000000004a00fa5c        0xc common/built-in.o
 .text.mapset   0x000000004a00fa68       0x20 common/built-in.o
 .text.syntax_err
                0x000000004a00fa88        0xc common/built-in.o
 .text.free_pipe_list
                0x000000004a00fa94       0xf0 common/built-in.o
 .text.xmalloc  0x000000004a00fb84       0x28 common/built-in.o
 .text.new_pipe
                0x000000004a00fbac       0x24 common/built-in.o
 .text.xrealloc
                0x000000004a00fbd0       0x28 common/built-in.o
 .text.done_command
                0x000000004a00fbf8       0x94 common/built-in.o
 .text.done_pipe
                0x000000004a00fc8c       0x50 common/built-in.o
 .text.done_word
                0x000000004a00fcdc      0x298 common/built-in.o
 .text.do_showvar
                0x000000004a00ff74      0x108 common/built-in.o
 .text.is_assignment
                0x000000004a01007c       0x54 common/built-in.o
 .text.file_get
                0x000000004a0100d0      0x1f4 common/built-in.o
 .text.b_addchr
                0x000000004a0102c4       0x94 common/built-in.o
 .text.b_addqchr
                0x000000004a010358       0x58 common/built-in.o
 .text.static_peek
                0x000000004a0103b0        0xc common/built-in.o
 .text.get_local_var
                0x000000004a0103bc       0x98 common/built-in.o
                0x000000004a0103bc                get_local_var
 .text.set_local_var
                0x000000004a010454      0x1ac common/built-in.o
                0x000000004a010454                set_local_var
 .text.insert_var_value_sub
                0x000000004a010600      0x2c0 common/built-in.o
 .text.parse_string_outer
                0x000000004a0108c0       0xec common/built-in.o
                0x000000004a0108c0                parse_string_outer
 .text.run_list_real
                0x000000004a0109ac      0x720 common/built-in.o
 .text.parse_stream_outer
                0x000000004a0110cc      0x678 common/built-in.o
 .text.parse_file_outer
                0x000000004a011744       0x40 common/built-in.o
                0x000000004a011744                parse_file_outer
 .text.u_boot_hush_start
                0x000000004a011784       0x5c common/built-in.o
                0x000000004a011784                u_boot_hush_start
 .text.bootdelay_process
                0x000000004a0117e0       0xcc common/built-in.o
                0x000000004a0117e0                bootdelay_process
 .text.autoboot_command
                0x000000004a0118ac      0x110 common/built-in.o
                0x000000004a0118ac                autoboot_command
 .text.setup_mon_len
                0x000000004a0119bc       0x20 common/built-in.o
 .text.reserve_round_4k
                0x000000004a0119dc       0x14 common/built-in.o
 .text.reserve_uboot
                0x000000004a0119f0       0x2c common/built-in.o
 .text.reserve_malloc
                0x000000004a011a1c       0x1c common/built-in.o
 .text.reserve_global_data
                0x000000004a011a38       0x1c common/built-in.o
 .text.reserve_fdt
                0x000000004a011a54       0x48 common/built-in.o
 .text.initf_console_record
                0x000000004a011a9c        0x8 common/built-in.o
 .text.arch_cpu_init_dm
                0x000000004a011aa4        0x8 common/built-in.o
                0x000000004a011aa4                arch_cpu_init_dm
 .text.dram_init_banksize
                0x000000004a011aac       0x34 common/built-in.o
                0x000000004a011aac                dram_init_banksize
 .text.reserve_mmu
                0x000000004a011ae0       0x4c common/built-in.o
                0x000000004a011ae0                reserve_mmu
 .text.setup_reloc
                0x000000004a011b2c       0x48 common/built-in.o
 .text.reloc_fdt
                0x000000004a011b74       0x44 common/built-in.o
 .text.reserve_board
                0x000000004a011bb8       0x48 common/built-in.o
 .text.reserve_video
                0x000000004a011c00       0x2c common/built-in.o
 .text.announce_dram_init
                0x000000004a011c2c       0x20 common/built-in.o
 .text.init_baud_rate
                0x000000004a011c4c       0x3c common/built-in.o
 .text.initf_dm
                0x000000004a011c88        0x8 common/built-in.o
 .text.initf_bootstage
                0x000000004a011c90       0x1c common/built-in.o
 .text.reserve_arch
                0x000000004a011cac        0x8 common/built-in.o
                0x000000004a011cac                reserve_arch
 .text.display_text_info
                0x000000004a011cb4        0x8 common/built-in.o
 .text.arch_cpu_init
                0x000000004a011cbc        0x8 common/built-in.o
                0x000000004a011cbc                arch_cpu_init
 .text.mach_cpu_init
                0x000000004a011cc4        0x8 common/built-in.o
                0x000000004a011cc4                mach_cpu_init
 .text.reserve_trace
                0x000000004a011ccc        0x8 common/built-in.o
 .text.setup_machine
                0x000000004a011cd4        0x8 common/built-in.o
 .text.reserve_bootstage
                0x000000004a011cdc        0x8 common/built-in.o
 .text.display_new_sp
                0x000000004a011ce4        0x8 common/built-in.o
 .text.reloc_bootstage
                0x000000004a011cec        0x8 common/built-in.o
 .text.board_add_ram_info
                0x000000004a011cf4        0x4 common/built-in.o
                0x000000004a011cf4                board_add_ram_info
 .text.show_dram_config
                0x000000004a011cf8       0x38 common/built-in.o
 .text.board_get_usable_ram_top
                0x000000004a011d30       0x1c common/built-in.o
                0x000000004a011d30                board_get_usable_ram_top
 .text.setup_dest_addr
                0x000000004a011d4c       0x4c common/built-in.o
 .text.reserve_stacks
                0x000000004a011d98       0x1c common/built-in.o
 .text.board_init_f
                0x000000004a011db4       0x2c common/built-in.o
                0x000000004a011db4                board_init_f
 .text.bootstage_relocate
                0x000000004a011de0        0x8 common/built-in.o
 .text.initr_reloc
                0x000000004a011de8       0x18 common/built-in.o
 .text.power_init_board
                0x000000004a011e00        0x8 common/built-in.o
                0x000000004a011e00                power_init_board
 .text.initr_announce
                0x000000004a011e08        0x8 common/built-in.o
 .text.run_main_loop
                0x000000004a011e10       0x10 common/built-in.o
 .text.initr_net
                0x000000004a011e20       0x24 common/built-in.o
 .text.initr_ethaddr
                0x000000004a011e44       0x28 common/built-in.o
 .text.initr_enable_interrupts
                0x000000004a011e6c       0x18 common/built-in.o
 .text.initr_jumptable
                0x000000004a011e84       0x18 common/built-in.o
 .text.initr_env
                0x000000004a011e9c       0x70 common/built-in.o
 .text.initr_mmc
                0x000000004a011f0c       0x28 common/built-in.o
 .text.initr_serial
                0x000000004a011f34       0x18 common/built-in.o
 .text.initr_dm
                0x000000004a011f4c       0x14 common/built-in.o
 .text.initr_bootstage
                0x000000004a011f60       0x1c common/built-in.o
 .text.initr_malloc
                0x000000004a011f7c       0x2c common/built-in.o
 .text.initr_reloc_global_data
                0x000000004a011fa8       0x3c common/built-in.o
 .text.initr_caches
                0x000000004a011fe4       0x18 common/built-in.o
 .text.initr_console_record
                0x000000004a011ffc        0x8 common/built-in.o
 .text.initr_trace
                0x000000004a012004        0x8 common/built-in.o
 .text.initr_barrier
                0x000000004a01200c        0x8 common/built-in.o
 .text.cpu_secondary_init_r
                0x000000004a012014        0x4 common/built-in.o
                0x000000004a012014                cpu_secondary_init_r
 .text.initr_secondary_cpu
                0x000000004a012018       0x18 common/built-in.o
 .text.board_init_r
                0x000000004a012030       0x18 common/built-in.o
                0x000000004a012030                board_init_r
 .text.checkboard
                0x000000004a012048        0x8 common/built-in.o
                0x000000004a012048                checkboard
 .text.show_board_info
                0x000000004a012050       0x3c common/built-in.o
                0x000000004a012050                show_board_info
 .text.bootm_find_images
                0x000000004a01208c       0xcc common/built-in.o
                0x000000004a01208c                bootm_find_images
 .text.bootm_decomp_image
                0x000000004a012158      0x1a4 common/built-in.o
                0x000000004a012158                bootm_decomp_image
 .text.bootm_disable_interrupts
                0x000000004a0122fc       0x28 common/built-in.o
                0x000000004a0122fc                bootm_disable_interrupts
 .text.do_bootm_states
                0x000000004a012324      0x818 common/built-in.o
                0x000000004a012324                do_bootm_states
 .text.copy_args
                0x000000004a012b3c       0x74 common/built-in.o
 .text.do_bootm_rtems
                0x000000004a012bb0       0x58 common/built-in.o
 .text.do_bootm_plan9
                0x000000004a012c08       0xc8 common/built-in.o
 .text.do_bootm_standalone
                0x000000004a012cd0       0x74 common/built-in.o
 .text.do_bootm_qnxelf
                0x000000004a012d44       0x8c common/built-in.o
 .text.do_bootm_netbsd
                0x000000004a012dd0      0x140 common/built-in.o
 .text.do_bootvx_fdt
                0x000000004a012f10      0x11c common/built-in.o
                0x000000004a012f10                do_bootvx_fdt
 .text.do_bootm_vxworks
                0x000000004a01302c       0x40 common/built-in.o
 .text.arch_preboot_os
                0x000000004a01306c        0x4 common/built-in.o
                0x000000004a01306c                arch_preboot_os
 .text.boot_selected_os
                0x000000004a013070       0x74 common/built-in.o
                0x000000004a013070                boot_selected_os
 .text.bootm_os_get_boot_func
                0x000000004a0130e4       0x10 common/built-in.o
                0x000000004a0130e4                bootm_os_get_boot_func
 .text.of_bus_default_map
                0x000000004a0130f4       0xa0 common/built-in.o
 .text.fdt_support_default_count_cells
                0x000000004a013194       0x70 common/built-in.o
                0x000000004a013194                fdt_support_default_count_cells
 .text.of_bus_default_translate
                0x000000004a013204       0xb8 common/built-in.o
 .text.fdt_getprop_u32_default_node
                0x000000004a0132bc       0x4c common/built-in.o
                0x000000004a0132bc                fdt_getprop_u32_default_node
 .text.fdt_find_and_setprop
                0x000000004a013308       0x94 common/built-in.o
                0x000000004a013308                fdt_find_and_setprop
 .text.fdt_find_or_add_subnode
                0x000000004a01339c       0x74 common/built-in.o
                0x000000004a01339c                fdt_find_or_add_subnode
 .text.fdt_root
                0x000000004a013410       0x98 common/built-in.o
                0x000000004a013410                fdt_root
 .text.fdt_initrd
                0x000000004a0134a8      0x1b8 common/built-in.o
                0x000000004a0134a8                fdt_initrd
 .text.fdt_chosen
                0x000000004a013660       0xf4 common/built-in.o
                0x000000004a013660                fdt_chosen
 .text.do_fixup_by_path
                0x000000004a013754       0x4c common/built-in.o
                0x000000004a013754                do_fixup_by_path
 .text.fdt_fixup_memory_banks
                0x000000004a0137a0      0x1e0 common/built-in.o
                0x000000004a0137a0                fdt_fixup_memory_banks
 .text.fdt_fixup_memory
                0x000000004a013980       0x2c common/built-in.o
                0x000000004a013980                fdt_fixup_memory
 .text.fdt_fixup_ethernet
                0x000000004a0139ac      0x1a4 common/built-in.o
                0x000000004a0139ac                fdt_fixup_ethernet
 .text.fdt_shrink_to_minimum
                0x000000004a013b50       0xc8 common/built-in.o
                0x000000004a013b50                fdt_shrink_to_minimum
 .text.fdt_translate_address
                0x000000004a013c18      0x288 common/built-in.o
                0x000000004a013c18                fdt_translate_address
 .text.fdt_setup_simplefb_node
                0x000000004a013ea0      0x1fc common/built-in.o
                0x000000004a013ea0                fdt_setup_simplefb_node
 .text.miiphy_get_dev_by_name
                0x000000004a01409c       0x6c common/built-in.o
                0x000000004a01409c                miiphy_get_dev_by_name
 .text.miiphy_init
                0x000000004a014108       0x1c common/built-in.o
                0x000000004a014108                miiphy_init
 .text.mdio_alloc
                0x000000004a014124       0x3c common/built-in.o
                0x000000004a014124                mdio_alloc
 .text.mdio_register
                0x000000004a014160       0x90 common/built-in.o
                0x000000004a014160                mdio_register
 .text.mdio_list_devices
                0x000000004a0141f0       0xd4 common/built-in.o
                0x000000004a0141f0                mdio_list_devices
 .text.miiphy_set_current_dev
                0x000000004a0142c4       0x48 common/built-in.o
                0x000000004a0142c4                miiphy_set_current_dev
 .text.miiphy_get_active_dev
                0x000000004a01430c       0x60 common/built-in.o
 .text.mdio_get_current_dev
                0x000000004a01436c        0xc common/built-in.o
                0x000000004a01436c                mdio_get_current_dev
 .text.mdio_phydev_for_ethname
                0x000000004a014378       0xa0 common/built-in.o
                0x000000004a014378                mdio_phydev_for_ethname
 .text.miiphy_get_current_dev
                0x000000004a014418       0x18 common/built-in.o
                0x000000004a014418                miiphy_get_current_dev
 .text.miiphy_read
                0x000000004a014430       0x5c common/built-in.o
                0x000000004a014430                miiphy_read
 .text.miiphy_write
                0x000000004a01448c       0x5c common/built-in.o
                0x000000004a01448c                miiphy_write
 .text.miiphy_listdev
                0x000000004a0144e8       0x90 common/built-in.o
                0x000000004a0144e8                miiphy_listdev
 .text.miiphy_info
                0x000000004a014578       0xa0 common/built-in.o
                0x000000004a014578                miiphy_info
 .text.miiphy_is_1000base_x
                0x000000004a014618       0x40 common/built-in.o
                0x000000004a014618                miiphy_is_1000base_x
 .text.miiphy_speed
                0x000000004a014658      0x11c common/built-in.o
                0x000000004a014658                miiphy_speed
 .text.miiphy_duplex
                0x000000004a014774      0x140 common/built-in.o
                0x000000004a014774                miiphy_duplex
 .text.usb_set_maxpacket_ep
                0x000000004a0148b4       0x88 common/built-in.o
 .text.usb_control_msg
                0x000000004a01493c       0x9c common/built-in.o
                0x000000004a01493c                usb_control_msg
 .text.usb_get_descriptor
                0x000000004a0149d8       0x5c common/built-in.o
 .text.get_descriptor_len
                0x000000004a014a34       0xa4 common/built-in.o
 .text.usb_setup_descriptor
                0x000000004a014ad8       0xec common/built-in.o
 .text.usb_get_string
                0x000000004a014bc4       0xa4 common/built-in.o
 .text.usb_string_sub
                0x000000004a014c68      0x114 common/built-in.o
 .text.usb_bulk_msg
                0x000000004a014d7c       0x7c common/built-in.o
                0x000000004a014d7c                usb_bulk_msg
 .text.usb_maxpacket
                0x000000004a014df8       0x20 common/built-in.o
                0x000000004a014df8                usb_maxpacket
 .text.usb_clear_halt
                0x000000004a014e18       0xa0 common/built-in.o
                0x000000004a014e18                usb_clear_halt
 .text.usb_get_configuration_len
                0x000000004a014eb8       0x78 common/built-in.o
                0x000000004a014eb8                usb_get_configuration_len
 .text.usb_get_configuration_no
                0x000000004a014f30       0x40 common/built-in.o
                0x000000004a014f30                usb_get_configuration_no
 .text.usb_set_interface
                0x000000004a014f70       0xbc common/built-in.o
                0x000000004a014f70                usb_set_interface
 .text.usb_set_protocol
                0x000000004a01502c       0x4c common/built-in.o
                0x000000004a01502c                usb_set_protocol
 .text.usb_set_idle
                0x000000004a015078       0x4c common/built-in.o
                0x000000004a015078                usb_set_idle
 .text.usb_string
                0x000000004a0150c4      0x110 common/built-in.o
                0x000000004a0150c4                usb_string
 .text.usb_select_config
                0x000000004a0151d4      0x4bc common/built-in.o
                0x000000004a0151d4                usb_select_config
 .text.usb_setup_device
                0x000000004a015690      0x120 common/built-in.o
                0x000000004a015690                usb_setup_device
 .text.usb_device_has_child_on_port
                0x000000004a0157b0        0x8 common/built-in.o
                0x000000004a0157b0                usb_device_has_child_on_port
 .text.usb_find_usb2_hub_address_port
                0x000000004a0157b8       0x90 common/built-in.o
                0x000000004a0157b8                usb_find_usb2_hub_address_port
 .text.usb_set_port_feature
                0x000000004a015848       0x4c common/built-in.o
 .text.usb_clear_port_feature
                0x000000004a015894       0x4c common/built-in.o
 .text.usb_get_hub_descriptor
                0x000000004a0158e0       0x64 common/built-in.o
 .text.usb_hub_reset_devices
                0x000000004a015944        0x4 common/built-in.o
                0x000000004a015944                usb_hub_reset_devices
 .text.usb_hub_is_root_hub
                0x000000004a015948       0x20 common/built-in.o
                0x000000004a015948                usb_hub_is_root_hub
 .text.usb_get_port_status
                0x000000004a015968       0xcc common/built-in.o
                0x000000004a015968                usb_get_port_status
 .text.usb_hub_port_connect_change
                0x000000004a015a34      0x17c common/built-in.o
                0x000000004a015a34                usb_hub_port_connect_change
 .text.usb_hub_configure
                0x000000004a015bb0      0x59c common/built-in.o
 .text.usb_hub_scan
                0x000000004a01614c       0x14 common/built-in.o
                0x000000004a01614c                usb_hub_scan
 .text.usb_hub_post_probe
                0x000000004a016160        0x4 common/built-in.o
 .text.usb_stor_irq
                0x000000004a016164       0x18 common/built-in.o
 .text.usb_stor_BBB_reset
                0x000000004a01617c      0x10c common/built-in.o
 .text.usb_stor_CB_reset
                0x000000004a016288       0xe8 common/built-in.o
 .text.usb_stor_BBB_clear_endpt_stall.isra.0
                0x000000004a016370       0x4c common/built-in.o
 .text.usb_stor_BBB_transport
                0x000000004a0163bc      0x24c common/built-in.o
 .text.usb_stor_CB_comdat
                0x000000004a016608      0x1f4 common/built-in.o
 .text.usb_stor_CBI_get_status.isra.2
                0x000000004a0167fc       0xd4 common/built-in.o
 .text.usb_stor_CB_transport
                0x000000004a0168d0      0x204 common/built-in.o
 .text.usb_request_sense.constprop.11
                0x000000004a016ad4       0x8c common/built-in.o
 .text.usb_stor_read
                0x000000004a016b60      0x184 common/built-in.o
 .text.usb_stor_write
                0x000000004a016ce4      0x184 common/built-in.o
 .text.usb_stor_info
                0x000000004a016e68       0x8c common/built-in.o
                0x000000004a016e68                usb_stor_info
 .text.usb_stor_reset
                0x000000004a016ef4        0xc common/built-in.o
                0x000000004a016ef4                usb_stor_reset
 .text.usb_stor_scan
                0x000000004a016f00       0x4c common/built-in.o
                0x000000004a016f00                usb_stor_scan
 .text.usb_storage_probe
                0x000000004a016f4c      0x270 common/built-in.o
                0x000000004a016f4c                usb_storage_probe
 .text.usb_stor_get_info
                0x000000004a0171bc      0x2fc common/built-in.o
                0x000000004a0171bc                usb_stor_get_info
 .text.usb_mass_storage_probe
                0x000000004a0174b8      0x1d8 common/built-in.o
 .text.iomux_doenv
                0x000000004a017690      0x1c8 common/built-in.o
                0x000000004a017690                iomux_doenv
 .text.edid_check_info
                0x000000004a017858       0x60 common/built-in.o
                0x000000004a017858                edid_check_info
 .text.edid_get_timing
                0x000000004a0178b8      0x2b8 common/built-in.o
                0x000000004a0178b8                edid_get_timing
 .text.menu_display_statusline
                0x000000004a017b70        0x4 common/built-in.o
                0x000000004a017b70                menu_display_statusline
 .text.menu_default_set
                0x000000004a017b74       0x98 common/built-in.o
                0x000000004a017b74                menu_default_set
 .text.menu_get_choice
                0x000000004a017c0c      0x1f0 common/built-in.o
                0x000000004a017c0c                menu_get_choice
 .text.menu_item_add
                0x000000004a017dfc       0xe0 common/built-in.o
                0x000000004a017dfc                menu_item_add
 .text.menu_create
                0x000000004a017edc       0xa4 common/built-in.o
                0x000000004a017edc                menu_create
 .text.menu_destroy
                0x000000004a017f80       0x80 common/built-in.o
                0x000000004a017f80                menu_destroy
 .text.usb_kbd_remove
                0x000000004a018000       0xb4 common/built-in.o
 .text.usb_kbd_translate.part.0
                0x000000004a0180b4      0x15c common/built-in.o
 .text.usb_kbd_probe
                0x000000004a018210      0x1f4 common/built-in.o
 .text.usb_kbd_irq_worker
                0x000000004a018404      0x1bc common/built-in.o
 .text.usb_kbd_getc
                0x000000004a0185c0       0xd0 common/built-in.o
 .text.usb_kbd_testc
                0x000000004a018690       0xe4 common/built-in.o
 .text.usb_kbd_irq
                0x000000004a018774       0x20 common/built-in.o
 .text.delete_char.part.0
                0x000000004a018794       0xfc common/built-in.o
 .text.cread_add_char
                0x000000004a018890      0x100 common/built-in.o
 .text.cli_readline_into_buffer
                0x000000004a018990      0x954 common/built-in.o
                0x000000004a018990                cli_readline_into_buffer
 .text.cli_readline
                0x000000004a0192e4       0x14 common/built-in.o
                0x000000004a0192e4                cli_readline
 .text.cli_simple_process_macros
                0x000000004a0192f8      0x234 common/built-in.o
                0x000000004a0192f8                cli_simple_process_macros
 .text.console_tstc
                0x000000004a01952c       0x98 common/built-in.o
 .text.console_putc
                0x000000004a0195c4       0x70 common/built-in.o
 .text.console_puts
                0x000000004a019634       0x70 common/built-in.o
 .text.pre_console_putc
                0x000000004a0196a4       0x1c common/built-in.o
 .text.on_console
                0x000000004a0196c0       0xc8 common/built-in.o
 .text.serial_printf
                0x000000004a019788       0xcc common/built-in.o
                0x000000004a019788                serial_printf
 .text.console_getc.isra.0
                0x000000004a019854       0x30 common/built-in.o
 .text.putc     0x000000004a019884       0x44 common/built-in.o
                0x000000004a019884                putc
 .text.tstc     0x000000004a0198c8       0x24 common/built-in.o
                0x000000004a0198c8                tstc
 .text.getc     0x000000004a0198ec       0x4c common/built-in.o
                0x000000004a0198ec                getc
 .text.puts     0x000000004a019938       0x68 common/built-in.o
                0x000000004a019938                puts
 .text.print_pre_console_buffer
                0x000000004a0199a0      0x11c common/built-in.o
 .text.fputs    0x000000004a019abc       0x10 common/built-in.o
                0x000000004a019abc                fputs
 .text.fprintf  0x000000004a019acc       0xd0 common/built-in.o
                0x000000004a019acc                fprintf
 .text.ctrlc    0x000000004a019b9c       0x58 common/built-in.o
                0x000000004a019b9c                ctrlc
 .text.disable_ctrlc
                0x000000004a019bf4       0x14 common/built-in.o
                0x000000004a019bf4                disable_ctrlc
 .text.had_ctrlc
                0x000000004a019c08        0xc common/built-in.o
                0x000000004a019c08                had_ctrlc
 .text.clear_ctrlc
                0x000000004a019c14        0xc common/built-in.o
                0x000000004a019c14                clear_ctrlc
 .text.search_device
                0x000000004a019c20       0x34 common/built-in.o
                0x000000004a019c20                search_device
 .text.console_assign
                0x000000004a019c54       0xe4 common/built-in.o
                0x000000004a019c54                console_assign
 .text.console_init_f
                0x000000004a019d38       0x24 common/built-in.o
                0x000000004a019d38                console_init_f
 .text.stdio_print_current_devices
                0x000000004a019d5c       0xc0 common/built-in.o
                0x000000004a019d5c                stdio_print_current_devices
 .text.console_init_r
                0x000000004a019e1c      0x1c4 common/built-in.o
                0x000000004a019e1c                console_init_r
 .text.sbrk     0x000000004a019fe0       0x70 common/built-in.o
                0x000000004a019fe0                sbrk
 .text.mem_malloc_init
                0x000000004a01a050       0x20 common/built-in.o
                0x000000004a01a050                mem_malloc_init
 .text.malloc_trim
                0x000000004a01a070       0xd8 common/built-in.o
                0x000000004a01a070                malloc_trim
 .text.free     0x000000004a01a148      0x22c common/built-in.o
                0x000000004a01a148                free
 .text.malloc   0x000000004a01a374      0x63c common/built-in.o
                0x000000004a01a374                malloc
 .text.calloc   0x000000004a01a9b0       0xd8 common/built-in.o
                0x000000004a01a9b0                calloc
 .text.realloc  0x000000004a01aa88      0x478 common/built-in.o
                0x000000004a01aa88                realloc
 .text.memalign
                0x000000004a01af00      0x194 common/built-in.o
                0x000000004a01af00                memalign
 .text.initf_malloc
                0x000000004a01b094       0x18 common/built-in.o
                0x000000004a01b094                initf_malloc
 .text.malloc_simple
                0x000000004a01b0ac       0x38 common/built-in.o
                0x000000004a01b0ac                malloc_simple
 .text.on_loadaddr
                0x000000004a01b0e4       0x40 common/built-in.o
 .text.image_check_hcrc
                0x000000004a01b124       0x50 common/built-in.o
                0x000000004a01b124                image_check_hcrc
 .text.image_check_dcrc
                0x000000004a01b174       0x44 common/built-in.o
                0x000000004a01b174                image_check_dcrc
 .text.image_multi_count
                0x000000004a01b1b8       0x1c common/built-in.o
                0x000000004a01b1b8                image_multi_count
 .text.image_multi_getimg
                0x000000004a01b1d4       0x88 common/built-in.o
                0x000000004a01b1d4                image_multi_getimg
 .text.env_get_bootm_low
                0x000000004a01b25c       0x34 common/built-in.o
                0x000000004a01b25c                env_get_bootm_low
 .text.env_get_bootm_size
                0x000000004a01b290       0x78 common/built-in.o
                0x000000004a01b290                env_get_bootm_size
 .text.env_get_bootm_mapsize
                0x000000004a01b308       0x30 common/built-in.o
                0x000000004a01b308                env_get_bootm_mapsize
 .text.memmove_wd
                0x000000004a01b338       0x10 common/built-in.o
                0x000000004a01b338                memmove_wd
 .text.genimg_print_size
                0x000000004a01b348       0x38 common/built-in.o
                0x000000004a01b348                genimg_print_size
 .text.get_table_entry
                0x000000004a01b380       0x20 common/built-in.o
                0x000000004a01b380                get_table_entry
 .text.get_table_entry_name
                0x000000004a01b3a0       0x28 common/built-in.o
                0x000000004a01b3a0                get_table_entry_name
 .text.genimg_get_os_name
                0x000000004a01b3c8       0x18 common/built-in.o
                0x000000004a01b3c8                genimg_get_os_name
 .text.genimg_get_arch_name
                0x000000004a01b3e0       0x18 common/built-in.o
                0x000000004a01b3e0                genimg_get_arch_name
 .text.genimg_get_type_name
                0x000000004a01b3f8       0x18 common/built-in.o
                0x000000004a01b3f8                genimg_get_type_name
 .text.genimg_get_comp_name
                0x000000004a01b410       0x18 common/built-in.o
                0x000000004a01b410                genimg_get_comp_name
 .text.image_print_contents
                0x000000004a01b428      0x1b8 common/built-in.o
                0x000000004a01b428                image_print_contents
 .text.get_table_entry_id
                0x000000004a01b5e0       0x50 common/built-in.o
                0x000000004a01b5e0                get_table_entry_id
 .text.genimg_get_os_id
                0x000000004a01b630       0x18 common/built-in.o
                0x000000004a01b630                genimg_get_os_id
 .text.genimg_get_arch_id
                0x000000004a01b648       0x18 common/built-in.o
                0x000000004a01b648                genimg_get_arch_id
 .text.genimg_get_type_id
                0x000000004a01b660       0x18 common/built-in.o
                0x000000004a01b660                genimg_get_type_id
 .text.genimg_get_comp_id
                0x000000004a01b678       0x18 common/built-in.o
                0x000000004a01b678                genimg_get_comp_id
 .text.genimg_get_kernel_addr_fit
                0x000000004a01b690       0x7c common/built-in.o
                0x000000004a01b690                genimg_get_kernel_addr_fit
 .text.genimg_get_kernel_addr
                0x000000004a01b70c       0x24 common/built-in.o
                0x000000004a01b70c                genimg_get_kernel_addr
 .text.genimg_get_format
                0x000000004a01b730       0x3c common/built-in.o
                0x000000004a01b730                genimg_get_format
 .text.genimg_has_config
                0x000000004a01b76c       0x10 common/built-in.o
                0x000000004a01b76c                genimg_has_config
 .text.boot_get_ramdisk
                0x000000004a01b77c      0x358 common/built-in.o
                0x000000004a01b77c                boot_get_ramdisk
 .text.boot_ramdisk_high
                0x000000004a01bad4      0x138 common/built-in.o
                0x000000004a01bad4                boot_ramdisk_high
 .text.boot_get_setup
                0x000000004a01bc0c        0x4 common/built-in.o
                0x000000004a01bc0c                boot_get_setup
 .text.boot_get_loadable
                0x000000004a01bc10      0x190 common/built-in.o
                0x000000004a01bc10                boot_get_loadable
 .text.image_setup_linux
                0x000000004a01bda0       0x6c common/built-in.o
                0x000000004a01bda0                image_setup_linux
 .text.fdt_error
                0x000000004a01be0c       0x38 common/built-in.o
 .text.boot_fdt_add_mem_rsv_regions
                0x000000004a01be44       0x94 common/built-in.o
                0x000000004a01be44                boot_fdt_add_mem_rsv_regions
 .text.boot_relocate_fdt
                0x000000004a01bed8      0x1b0 common/built-in.o
                0x000000004a01bed8                boot_relocate_fdt
 .text.boot_get_fdt
                0x000000004a01c088      0x38c common/built-in.o
                0x000000004a01c088                boot_get_fdt
 .text.ft_verify_fdt
                0x000000004a01c414        0x8 common/built-in.o
                0x000000004a01c414                ft_verify_fdt
 .text.image_setup_libfdt
                0x000000004a01c41c      0x144 common/built-in.o
                0x000000004a01c41c                image_setup_libfdt
 .text.fit_image_get_address
                0x000000004a01c560       0x84 common/built-in.o
 .text.fit_parse_conf
                0x000000004a01c5e4       0x78 common/built-in.o
                0x000000004a01c5e4                fit_parse_conf
 .text.fit_parse_subimage
                0x000000004a01c65c       0x78 common/built-in.o
                0x000000004a01c65c                fit_parse_subimage
 .text.fit_get_desc
                0x000000004a01c6d4       0x38 common/built-in.o
                0x000000004a01c6d4                fit_get_desc
 .text.fit_image_get_node
                0x000000004a01c70c       0x48 common/built-in.o
                0x000000004a01c70c                fit_image_get_node
 .text.fit_image_get_os
                0x000000004a01c754       0x4c common/built-in.o
                0x000000004a01c754                fit_image_get_os
 .text.fit_image_get_arch
                0x000000004a01c7a0       0x4c common/built-in.o
                0x000000004a01c7a0                fit_image_get_arch
 .text.fit_image_get_type
                0x000000004a01c7ec       0x4c common/built-in.o
                0x000000004a01c7ec                fit_image_get_type
 .text.fit_image_get_comp
                0x000000004a01c838       0x4c common/built-in.o
                0x000000004a01c838                fit_image_get_comp
 .text.fit_image_get_load
                0x000000004a01c884       0x10 common/built-in.o
                0x000000004a01c884                fit_image_get_load
 .text.fit_image_get_entry
                0x000000004a01c894       0x10 common/built-in.o
                0x000000004a01c894                fit_image_get_entry
 .text.fit_image_get_data
                0x000000004a01c8a4       0x50 common/built-in.o
                0x000000004a01c8a4                fit_image_get_data
 .text.fit_image_hash_get_algo
                0x000000004a01c8f4       0x38 common/built-in.o
                0x000000004a01c8f4                fit_image_hash_get_algo
 .text.fit_image_hash_get_value
                0x000000004a01c92c       0x50 common/built-in.o
                0x000000004a01c92c                fit_image_hash_get_value
 .text.fit_image_print_data
                0x000000004a01c97c      0x158 common/built-in.o
 .text.fit_image_print
                0x000000004a01cad4      0x390 common/built-in.o
                0x000000004a01cad4                fit_image_print
 .text.fit_get_end
                0x000000004a01ce64       0x10 common/built-in.o
                0x000000004a01ce64                fit_get_end
 .text.calculate_hash
                0x000000004a01ce74      0x11c common/built-in.o
                0x000000004a01ce74                calculate_hash
 .text.fit_image_verify
                0x000000004a01cf90      0x214 common/built-in.o
                0x000000004a01cf90                fit_image_verify
 .text.fit_all_image_verify
                0x000000004a01d1a4      0x114 common/built-in.o
                0x000000004a01d1a4                fit_all_image_verify
 .text.fit_image_check_os
                0x000000004a01d2b8       0x3c common/built-in.o
                0x000000004a01d2b8                fit_image_check_os
 .text.fit_image_check_arch
                0x000000004a01d2f4       0x5c common/built-in.o
                0x000000004a01d2f4                fit_image_check_arch
 .text.fit_image_check_type
                0x000000004a01d350       0x3c common/built-in.o
                0x000000004a01d350                fit_image_check_type
 .text.fit_image_check_comp
                0x000000004a01d38c       0x3c common/built-in.o
                0x000000004a01d38c                fit_image_check_comp
 .text.fit_check_format
                0x000000004a01d3c8       0x54 common/built-in.o
                0x000000004a01d3c8                fit_check_format
 .text.fit_conf_get_node
                0x000000004a01d41c       0xe0 common/built-in.o
                0x000000004a01d41c                fit_conf_get_node
 .text.fit_conf_get_prop_node_index
                0x000000004a01d4fc       0x3c common/built-in.o
                0x000000004a01d4fc                fit_conf_get_prop_node_index
 .text.fit_conf_get_prop_node
                0x000000004a01d538        0x8 common/built-in.o
                0x000000004a01d538                fit_conf_get_prop_node
 .text.fit_conf_print
                0x000000004a01d540      0x1fc common/built-in.o
                0x000000004a01d540                fit_conf_print
 .text.fit_print_contents
                0x000000004a01d73c      0x220 common/built-in.o
                0x000000004a01d73c                fit_print_contents
 .text.fit_get_node_from_config
                0x000000004a01d95c       0x54 common/built-in.o
                0x000000004a01d95c                fit_get_node_from_config
 .text.fit_image_load
                0x000000004a01d9b0      0x578 common/built-in.o
                0x000000004a01d9b0                fit_image_load
 .text.boot_get_setup_fit
                0x000000004a01df28       0x78 common/built-in.o
                0x000000004a01df28                boot_get_setup_fit
 .text.boot_get_fdt_fit
                0x000000004a01dfa0      0x178 common/built-in.o
                0x000000004a01dfa0                boot_get_fdt_fit
 .text.get_ram_size
                0x000000004a01e118      0x11c common/built-in.o
                0x000000004a01e118                get_ram_size
 .text.get_effective_memsize
                0x000000004a01e234        0x8 common/built-in.o
                0x000000004a01e234                get_effective_memsize
 .text.nulldev_putc
                0x000000004a01e23c        0x4 common/built-in.o
 .text.nulldev_puts
                0x000000004a01e240        0x4 common/built-in.o
 .text.nulldev_input
                0x000000004a01e244        0x8 common/built-in.o
 .text.stdio_serial_tstc
                0x000000004a01e24c        0x4 common/built-in.o
 .text.stdio_serial_getc
                0x000000004a01e250        0x4 common/built-in.o
 .text.stdio_serial_puts
                0x000000004a01e254        0x8 common/built-in.o
 .text.stdio_serial_putc
                0x000000004a01e25c        0x8 common/built-in.o
 .text.stdio_get_list
                0x000000004a01e264       0x10 common/built-in.o
                0x000000004a01e264                stdio_get_list
 .text.stdio_get_by_name
                0x000000004a01e274       0xfc common/built-in.o
                0x000000004a01e274                stdio_get_by_name
 .text.stdio_clone
                0x000000004a01e370       0x48 common/built-in.o
                0x000000004a01e370                stdio_clone
 .text.stdio_register_dev
                0x000000004a01e3b8       0x58 common/built-in.o
                0x000000004a01e3b8                stdio_register_dev
 .text.stdio_register
                0x000000004a01e410        0x8 common/built-in.o
                0x000000004a01e410                stdio_register
 .text.stdio_deregister_dev
                0x000000004a01e418      0x104 common/built-in.o
                0x000000004a01e418                stdio_deregister_dev
 .text.stdio_init_tables
                0x000000004a01e51c       0x18 common/built-in.o
                0x000000004a01e51c                stdio_init_tables
 .text.stdio_add_devices
                0x000000004a01e534      0x13c common/built-in.o
                0x000000004a01e534                stdio_add_devices
 .text.run_command
                0x000000004a01e670       0x14 common/built-in.o
                0x000000004a01e670                run_command
 .text.run_command_list
                0x000000004a01e684       0x8c common/built-in.o
                0x000000004a01e684                run_command_list
 .text.do_run   0x000000004a01e710       0x80 common/built-in.o
                0x000000004a01e710                do_run
 .text.cli_process_fdt
                0x000000004a01e790       0x50 common/built-in.o
                0x000000004a01e790                cli_process_fdt
 .text.cli_secure_boot_cmd
                0x000000004a01e7e0       0x74 common/built-in.o
                0x000000004a01e7e0                cli_secure_boot_cmd
 .text.cli_loop
                0x000000004a01e854       0x10 common/built-in.o
                0x000000004a01e854                cli_loop
 .text.cli_init
                0x000000004a01e864        0x4 common/built-in.o
                0x000000004a01e864                cli_init
 .text.find_cmd_tbl
                0x000000004a01e868       0xbc common/built-in.o
                0x000000004a01e868                find_cmd_tbl
 .text.find_cmd
                0x000000004a01e924       0x28 common/built-in.o
                0x000000004a01e924                find_cmd
 .text.cmd_usage
                0x000000004a01e94c       0x68 common/built-in.o
                0x000000004a01e94c                cmd_usage
 .text._do_help
                0x000000004a01e9b4      0x18c common/built-in.o
                0x000000004a01e9b4                _do_help
 .text.var_complete
                0x000000004a01eb40       0x84 common/built-in.o
                0x000000004a01eb40                var_complete
 .text.cmd_auto_complete
                0x000000004a01ebc4      0x498 common/built-in.o
                0x000000004a01ebc4                cmd_auto_complete
 .text.cmd_get_data_size
                0x000000004a01f05c       0x68 common/built-in.o
                0x000000004a01f05c                cmd_get_data_size
 .text.cmd_process
                0x000000004a01f0c4      0x110 common/built-in.o
                0x000000004a01f0c4                cmd_process
 .text.cmd_process_error
                0x000000004a01f1d4       0x38 common/built-in.o
                0x000000004a01f1d4                cmd_process_error
 .text.hex1_bin
                0x000000004a01f20c       0x44 common/built-in.o
 .text.hex2_bin
                0x000000004a01f250       0x40 common/built-in.o
 .text.srec_decode
                0x000000004a01f290      0x22c common/built-in.o
                0x000000004a01f290                srec_decode
 .text.CYGACC_COMM_IF_GETC_TIMEOUT.isra.0
                0x000000004a01f4bc       0x54 common/built-in.o
 .text.xyzModem_flush
                0x000000004a01f510       0x1c common/built-in.o
 .text.xyzModem_get_hdr
                0x000000004a01f52c      0x210 common/built-in.o
 .text.xyzModem_stream_open
                0x000000004a01f73c      0x27c common/built-in.o
                0x000000004a01f73c                xyzModem_stream_open
 .text.xyzModem_stream_read
                0x000000004a01f9b8      0x26c common/built-in.o
                0x000000004a01f9b8                xyzModem_stream_read
 .text.xyzModem_stream_close
                0x000000004a01fc24       0x3c common/built-in.o
                0x000000004a01fc24                xyzModem_stream_close
 .text.xyzModem_stream_terminate
                0x000000004a01fc60       0xa4 common/built-in.o
                0x000000004a01fc60                xyzModem_stream_terminate
 .text.xyzModem_error
                0x000000004a01fd04       0x28 common/built-in.o
                0x000000004a01fd04                xyzModem_error
 .text.blk_get_dev
                0x000000004a01fd2c       0x3c disk/built-in.o
                0x000000004a01fd2c                blk_get_dev
 .text.dev_print
                0x000000004a01fd68      0x1dc disk/built-in.o
                0x000000004a01fd68                dev_print
 .text.part_init
                0x000000004a01ff44       0x80 disk/built-in.o
                0x000000004a01ff44                part_init
 .text.part_print
                0x000000004a01ffc4      0x16c disk/built-in.o
                0x000000004a01ffc4                part_print
 .text.part_get_info
                0x000000004a020130       0x8c disk/built-in.o
                0x000000004a020130                part_get_info
 .text.part_get_info_whole_disk
                0x000000004a0201bc       0x54 disk/built-in.o
                0x000000004a0201bc                part_get_info_whole_disk
 .text.blk_get_device_by_str
                0x000000004a020210      0x164 disk/built-in.o
                0x000000004a020210                blk_get_device_by_str
 .text.blk_get_device_part_str
                0x000000004a020374      0x384 disk/built-in.o
                0x000000004a020374                blk_get_device_part_str
 .text.part_set_generic_name
                0x000000004a0206f8       0x48 disk/built-in.o
                0x000000004a0206f8                part_set_generic_name
 .text.test_block_type
                0x000000004a020740       0x8c disk/built-in.o
 .text.print_partition_extended
                0x000000004a0207cc      0x258 disk/built-in.o
 .text.part_print_dos
                0x000000004a020a24       0x3c disk/built-in.o
                0x000000004a020a24                part_print_dos
 .text.part_test_dos
                0x000000004a020a60       0x88 disk/built-in.o
 .text.part_get_info_extended
                0x000000004a020ae8      0x2cc disk/built-in.o
 .text.part_get_info_dos
                0x000000004a020db4       0x1c disk/built-in.o
                0x000000004a020db4                part_get_info_dos
 .text.iso_dread
                0x000000004a020dd0       0x4c disk/built-in.o
                0x000000004a020dd0                iso_dread
 .text.part_get_info_iso_verb
                0x000000004a020e1c      0x37c disk/built-in.o
                0x000000004a020e1c                part_get_info_iso_verb
 .text.part_test_iso
                0x000000004a021198       0x20 disk/built-in.o
 .text.part_print_iso
                0x000000004a0211b8       0xa4 disk/built-in.o
 .text.part_get_info_iso
                0x000000004a02125c        0x8 disk/built-in.o
 .text.print_efiname
                0x000000004a021264       0x60 disk/built-in.o
 .text.part_test_efi
                0x000000004a0212c4       0xb8 disk/built-in.o
 .text.set_protective_mbr
                0x000000004a02137c       0xf0 disk/built-in.o
 .text.validate_gpt_entries
                0x000000004a02146c       0xa8 disk/built-in.o
 .text.validate_gpt_header
                0x000000004a021514      0x230 disk/built-in.o
 .text.is_gpt_valid
                0x000000004a021744      0x288 disk/built-in.o
 .text.is_pte_valid
                0x000000004a0219cc       0x64 disk/built-in.o
 .text.part_print_efi
                0x000000004a021a30      0x278 disk/built-in.o
                0x000000004a021a30                part_print_efi
 .text.part_get_info_efi
                0x000000004a021ca8      0x238 disk/built-in.o
                0x000000004a021ca8                part_get_info_efi
 .text.get_disk_guid
                0x000000004a021ee0       0xec disk/built-in.o
                0x000000004a021ee0                get_disk_guid
 .text.write_gpt_table
                0x000000004a021fcc      0x424 disk/built-in.o
                0x000000004a021fcc                write_gpt_table
 .text.gpt_fill_pte
                0x000000004a0223f0      0x3b4 disk/built-in.o
                0x000000004a0223f0                gpt_fill_pte
 .text.gpt_fill_header
                0x000000004a0227a4      0x24c disk/built-in.o
                0x000000004a0227a4                gpt_fill_header
 .text.gpt_restore
                0x000000004a0229f0      0x150 disk/built-in.o
                0x000000004a0229f0                gpt_restore
 .text.gpt_verify_headers
                0x000000004a022b40       0x98 disk/built-in.o
                0x000000004a022b40                gpt_verify_headers
 .text.gpt_verify_partitions
                0x000000004a022bd8      0x1f4 disk/built-in.o
                0x000000004a022bd8                gpt_verify_partitions
 .text.device_bind_common.isra.0
                0x000000004a022dcc      0x30c drivers/built-in.o
 .text.alloc_priv
                0x000000004a0230d8       0x64 drivers/built-in.o
 .text.device_bind_with_driver_data
                0x000000004a02313c       0x14 drivers/built-in.o
                0x000000004a02313c                device_bind_with_driver_data
 .text.device_bind
                0x000000004a023150       0x20 drivers/built-in.o
                0x000000004a023150                device_bind
 .text.device_bind_by_name
                0x000000004a023170       0x70 drivers/built-in.o
                0x000000004a023170                device_bind_by_name
 .text.device_probe
                0x000000004a0231e0      0x1f4 drivers/built-in.o
                0x000000004a0231e0                device_probe
 .text.dev_get_platdata
                0x000000004a0233d4       0x34 drivers/built-in.o
                0x000000004a0233d4                dev_get_platdata
 .text.dev_get_parent_platdata
                0x000000004a023408       0x34 drivers/built-in.o
                0x000000004a023408                dev_get_parent_platdata
 .text.dev_get_uclass_platdata
                0x000000004a02343c       0x34 drivers/built-in.o
                0x000000004a02343c                dev_get_uclass_platdata
 .text.dev_get_priv
                0x000000004a023470       0x34 drivers/built-in.o
                0x000000004a023470                dev_get_priv
 .text.dev_get_uclass_priv
                0x000000004a0234a4       0x34 drivers/built-in.o
                0x000000004a0234a4                dev_get_uclass_priv
 .text.dev_get_parent_priv
                0x000000004a0234d8       0x34 drivers/built-in.o
                0x000000004a0234d8                dev_get_parent_priv
 .text.device_get_child
                0x000000004a02350c       0x5c drivers/built-in.o
                0x000000004a02350c                device_get_child
 .text.device_find_first_child
                0x000000004a023568       0x28 drivers/built-in.o
                0x000000004a023568                device_find_first_child
 .text.device_find_next_child
                0x000000004a023590       0x30 drivers/built-in.o
                0x000000004a023590                device_find_next_child
 .text.dev_get_driver_data
                0x000000004a0235c0        0x8 drivers/built-in.o
                0x000000004a0235c0                dev_get_driver_data
 .text.device_get_uclass_id
                0x000000004a0235c8       0x10 drivers/built-in.o
                0x000000004a0235c8                device_get_uclass_id
 .text.device_has_active_children
                0x000000004a0235d8       0x3c drivers/built-in.o
                0x000000004a0235d8                device_has_active_children
 .text.device_is_last_sibling
                0x000000004a023614       0x24 drivers/built-in.o
                0x000000004a023614                device_is_last_sibling
 .text.devfdt_get_addr_index
                0x000000004a023638       0xc4 drivers/built-in.o
                0x000000004a023638                devfdt_get_addr_index
 .text.devfdt_get_addr_name
                0x000000004a0236fc       0x50 drivers/built-in.o
                0x000000004a0236fc                devfdt_get_addr_name
 .text.devfdt_get_addr
                0x000000004a02374c        0x8 drivers/built-in.o
                0x000000004a02374c                devfdt_get_addr
 .text.lists_driver_lookup_name
                0x000000004a023754       0x7c drivers/built-in.o
                0x000000004a023754                lists_driver_lookup_name
 .text.lists_uclass_lookup
                0x000000004a0237d0       0x48 drivers/built-in.o
                0x000000004a0237d0                lists_uclass_lookup
 .text.lists_bind_drivers
                0x000000004a023818       0xb0 drivers/built-in.o
                0x000000004a023818                lists_bind_drivers
 .text.device_bind_driver_to_node
                0x000000004a0238c8       0x68 drivers/built-in.o
                0x000000004a0238c8                device_bind_driver_to_node
 .text.device_bind_driver
                0x000000004a023930       0x1c drivers/built-in.o
                0x000000004a023930                device_bind_driver
 .text.lists_bind_fdt
                0x000000004a02394c      0x188 drivers/built-in.o
                0x000000004a02394c                lists_bind_fdt
 .text.dm_scan_fdt_node
                0x000000004a023ad4       0xc0 drivers/built-in.o
 .text.dm_root  0x000000004a023b94       0x30 drivers/built-in.o
                0x000000004a023b94                dm_root
 .text.dm_get_translation_offset
                0x000000004a023bc4       0x1c drivers/built-in.o
                0x000000004a023bc4                dm_get_translation_offset
 .text.dm_init  0x000000004a023be0       0x60 drivers/built-in.o
                0x000000004a023be0                dm_init
 .text.dm_remove_devices_flags
                0x000000004a023c40       0x2c drivers/built-in.o
                0x000000004a023c40                dm_remove_devices_flags
 .text.dm_scan_platdata
                0x000000004a023c6c       0x34 drivers/built-in.o
                0x000000004a023c6c                dm_scan_platdata
 .text.dm_scan_fdt_dev
                0x000000004a023ca0       0x28 drivers/built-in.o
                0x000000004a023ca0                dm_scan_fdt_dev
 .text.dm_scan_fdt
                0x000000004a023cc8       0x18 drivers/built-in.o
                0x000000004a023cc8                dm_scan_fdt
 .text.dm_extended_scan_fdt
                0x000000004a023ce0       0x60 drivers/built-in.o
                0x000000004a023ce0                dm_extended_scan_fdt
 .text.dm_scan_other
                0x000000004a023d40        0x8 drivers/built-in.o
                0x000000004a023d40                dm_scan_other
 .text.dm_init_and_scan
                0x000000004a023d48       0x54 drivers/built-in.o
                0x000000004a023d48                dm_init_and_scan
 .text.uclass_find
                0x000000004a023d9c       0x48 drivers/built-in.o
                0x000000004a023d9c                uclass_find
 .text.uclass_get
                0x000000004a023de4      0x120 drivers/built-in.o
                0x000000004a023de4                uclass_get
 .text.uclass_find_device
                0x000000004a023f04       0x78 drivers/built-in.o
                0x000000004a023f04                uclass_find_device
 .text.uclass_find_first_device
                0x000000004a023f7c       0x48 drivers/built-in.o
                0x000000004a023f7c                uclass_find_first_device
 .text.uclass_find_next_device
                0x000000004a023fc4       0x2c drivers/built-in.o
                0x000000004a023fc4                uclass_find_next_device
 .text.uclass_find_device_by_name
                0x000000004a023ff0       0x98 drivers/built-in.o
                0x000000004a023ff0                uclass_find_device_by_name
 .text.uclass_find_device_by_seq
                0x000000004a024088       0x90 drivers/built-in.o
                0x000000004a024088                uclass_find_device_by_seq
 .text.uclass_find_device_by_of_offset
                0x000000004a024118       0x78 drivers/built-in.o
                0x000000004a024118                uclass_find_device_by_of_offset
 .text.uclass_find_device_by_ofnode
                0x000000004a024190       0x7c drivers/built-in.o
                0x000000004a024190                uclass_find_device_by_ofnode
 .text.uclass_get_device_tail
                0x000000004a02420c       0x40 drivers/built-in.o
                0x000000004a02420c                uclass_get_device_tail
 .text.uclass_get_device
                0x000000004a02424c       0x38 drivers/built-in.o
                0x000000004a02424c                uclass_get_device
 .text.uclass_get_device_by_seq
                0x000000004a024284       0x68 drivers/built-in.o
                0x000000004a024284                uclass_get_device_by_seq
 .text.uclass_get_device_by_of_offset
                0x000000004a0242ec       0x38 drivers/built-in.o
                0x000000004a0242ec                uclass_get_device_by_of_offset
 .text.uclass_get_device_by_ofnode
                0x000000004a024324       0x38 drivers/built-in.o
                0x000000004a024324                uclass_get_device_by_ofnode
 .text.uclass_get_device_by_phandle
                0x000000004a02435c       0xc4 drivers/built-in.o
                0x000000004a02435c                uclass_get_device_by_phandle
 .text.uclass_first_device
                0x000000004a024420       0x44 drivers/built-in.o
                0x000000004a024420                uclass_first_device
 .text.uclass_first_device_err
                0x000000004a024464       0x34 drivers/built-in.o
                0x000000004a024464                uclass_first_device_err
 .text.uclass_next_device
                0x000000004a024498       0x44 drivers/built-in.o
                0x000000004a024498                uclass_next_device
 .text.uclass_bind_device
                0x000000004a0244dc       0x7c drivers/built-in.o
                0x000000004a0244dc                uclass_bind_device
 .text.uclass_unbind_device
                0x000000004a024558       0x4c drivers/built-in.o
                0x000000004a024558                uclass_unbind_device
 .text.uclass_resolve_seq
                0x000000004a0245a4       0xb8 drivers/built-in.o
                0x000000004a0245a4                uclass_resolve_seq
 .text.uclass_pre_probe_device
                0x000000004a02465c       0x64 drivers/built-in.o
                0x000000004a02465c                uclass_pre_probe_device
 .text.uclass_post_probe_device
                0x000000004a0246c0       0x1c drivers/built-in.o
                0x000000004a0246c0                uclass_post_probe_device
 .text.uclass_pre_remove_device
                0x000000004a0246dc       0x1c drivers/built-in.o
                0x000000004a0246dc                uclass_pre_remove_device
 .text.dm_warn  0x000000004a0246f8       0x78 drivers/built-in.o
                0x000000004a0246f8                dm_warn
 .text.dm_fdt_pre_reloc
                0x000000004a024770       0x78 drivers/built-in.o
                0x000000004a024770                dm_fdt_pre_reloc
 .text.device_unbind
                0x000000004a0247e8      0x11c drivers/built-in.o
                0x000000004a0247e8                device_unbind
 .text.device_free
                0x000000004a024904       0x80 drivers/built-in.o
                0x000000004a024904                device_free
 .text.device_remove
                0x000000004a024984      0x16c drivers/built-in.o
                0x000000004a024984                device_remove
 .text.simple_bus_post_bind
                0x000000004a024af0       0x60 drivers/built-in.o
 .text.show_devices
                0x000000004a024b50      0x124 drivers/built-in.o
 .text.dm_dump_all
                0x000000004a024c74       0x54 drivers/built-in.o
                0x000000004a024c74                dm_dump_all
 .text.dm_dump_uclass
                0x000000004a024cc8      0x114 drivers/built-in.o
                0x000000004a024cc8                dm_dump_uclass
 .text.ofnode_read_u32
                0x000000004a024ddc       0x5c drivers/built-in.o
                0x000000004a024ddc                ofnode_read_u32
 .text.ofnode_read_u32_default
                0x000000004a024e38       0x24 drivers/built-in.o
                0x000000004a024e38                ofnode_read_u32_default
 .text.ofnode_read_u32_array
                0x000000004a024e5c       0x1c drivers/built-in.o
                0x000000004a024e5c                ofnode_read_u32_array
 .text.ofnode_get_name
                0x000000004a024e78       0x14 drivers/built-in.o
                0x000000004a024e78                ofnode_get_name
 .text.ofnode_parse_phandle_with_args
                0x000000004a024e8c       0x6c drivers/built-in.o
                0x000000004a024e8c                ofnode_parse_phandle_with_args
 .text.ofnode_path
                0x000000004a024ef8       0x24 drivers/built-in.o
                0x000000004a024ef8                ofnode_path
 .text.ofnode_get_property
                0x000000004a024f1c       0x18 drivers/built-in.o
                0x000000004a024f1c                ofnode_get_property
 .text.get_desc
                0x000000004a024f34       0x54 drivers/built-in.o
 .text.blk_driver_lookup_type
                0x000000004a024f88       0x5c drivers/built-in.o
                0x000000004a024f88                blk_driver_lookup_type
 .text.blk_get_if_type_name
                0x000000004a024fe4       0x24 drivers/built-in.o
                0x000000004a024fe4                blk_get_if_type_name
 .text.blk_list_part
                0x000000004a025008       0x9c drivers/built-in.o
                0x000000004a025008                blk_list_part
 .text.blk_print_part_devnum
                0x000000004a0250a4       0x5c drivers/built-in.o
                0x000000004a0250a4                blk_print_part_devnum
 .text.blk_list_devices
                0x000000004a025100       0x84 drivers/built-in.o
                0x000000004a025100                blk_list_devices
 .text.blk_print_device_num
                0x000000004a025184       0x68 drivers/built-in.o
                0x000000004a025184                blk_print_device_num
 .text.blk_show_device
                0x000000004a0251ec       0x90 drivers/built-in.o
                0x000000004a0251ec                blk_show_device
 .text.blk_get_devnum_by_type
                0x000000004a02527c       0x38 drivers/built-in.o
                0x000000004a02527c                blk_get_devnum_by_type
 .text.blk_dselect_hwpart
                0x000000004a0252b4       0x48 drivers/built-in.o
                0x000000004a0252b4                blk_dselect_hwpart
 .text.blk_get_devnum_by_typename
                0x000000004a0252fc       0x98 drivers/built-in.o
                0x000000004a0252fc                blk_get_devnum_by_typename
 .text.blk_read_devnum
                0x000000004a025394       0x70 drivers/built-in.o
                0x000000004a025394                blk_read_devnum
 .text.blk_write_devnum
                0x000000004a025404       0x70 drivers/built-in.o
                0x000000004a025404                blk_write_devnum
 .text.blk_select_hwpart_devnum
                0x000000004a025474       0x54 drivers/built-in.o
                0x000000004a025474                blk_select_hwpart_devnum
 .text.mmc_set_ios
                0x000000004a0254c8       0x18 drivers/built-in.o
 .text.mmc_set_capacity
                0x000000004a0254e0       0x84 drivers/built-in.o
 .text.board_mmc_getwp
                0x000000004a025564        0x8 drivers/built-in.o
                0x000000004a025564                board_mmc_getwp
 .text.mmc_getwp
                0x000000004a02556c       0x48 drivers/built-in.o
                0x000000004a02556c                mmc_getwp
 .text.board_mmc_getcd
                0x000000004a0255b4        0x8 drivers/built-in.o
                0x000000004a0255b4                board_mmc_getcd
 .text.mmc_send_cmd
                0x000000004a0255bc       0x10 drivers/built-in.o
                0x000000004a0255bc                mmc_send_cmd
 .text.mmc_send_ext_csd
                0x000000004a0255cc       0x40 drivers/built-in.o
 .text.mmc_go_idle
                0x000000004a02560c       0x50 drivers/built-in.o
 .text.mmc_send_op_cond_iter
                0x000000004a02565c       0x74 drivers/built-in.o
 .text.mmc_send_status
                0x000000004a0256d0       0xd4 drivers/built-in.o
                0x000000004a0256d0                mmc_send_status
 .text.mmc_set_blocklen
                0x000000004a0257a4       0x3c drivers/built-in.o
                0x000000004a0257a4                mmc_set_blocklen
 .text.mmc_bread
                0x000000004a0257e0      0x180 drivers/built-in.o
                0x000000004a0257e0                mmc_bread
 .text.mmc_switch
                0x000000004a025960       0x6c drivers/built-in.o
                0x000000004a025960                mmc_switch
 .text.mmc_switch_part
                0x000000004a0259cc       0x7c drivers/built-in.o
                0x000000004a0259cc                mmc_switch_part
 .text.mmc_hwpart_config
                0x000000004a025a48      0x3ec drivers/built-in.o
                0x000000004a025a48                mmc_hwpart_config
 .text.mmc_getcd
                0x000000004a025e34       0x48 drivers/built-in.o
                0x000000004a025e34                mmc_getcd
 .text.mmc_set_clock
                0x000000004a025e7c       0x24 drivers/built-in.o
                0x000000004a025e7c                mmc_set_clock
 .text.mmc_startup
                0x000000004a025ea0      0xb9c drivers/built-in.o
 .text.board_mmc_power_init
                0x000000004a026a3c        0x4 drivers/built-in.o
                0x000000004a026a3c                board_mmc_power_init
 .text.mmc_start_init
                0x000000004a026a40      0x240 drivers/built-in.o
                0x000000004a026a40                mmc_start_init
 .text.mmc_init
                0x000000004a026c80      0x124 drivers/built-in.o
                0x000000004a026c80                mmc_init
 .text.mmc_set_dsr
                0x000000004a026da4       0x10 drivers/built-in.o
                0x000000004a026da4                mmc_set_dsr
 .text.cpu_mmc_init
                0x000000004a026db4        0x8 drivers/built-in.o
                0x000000004a026db4                cpu_mmc_init
 .text.mmc_initialize
                0x000000004a026dbc       0x60 drivers/built-in.o
                0x000000004a026dbc                mmc_initialize
 .text.find_mmc_device
                0x000000004a026e1c       0x58 drivers/built-in.o
                0x000000004a026e1c                find_mmc_device
 .text.mmc_select_hwpartp
                0x000000004a026e74       0x64 drivers/built-in.o
 .text.mmc_get_dev
                0x000000004a026ed8       0x40 drivers/built-in.o
 .text.mmc_get_next_devnum
                0x000000004a026f18       0x14 drivers/built-in.o
                0x000000004a026f18                mmc_get_next_devnum
 .text.mmc_get_blk_desc
                0x000000004a026f2c        0x8 drivers/built-in.o
                0x000000004a026f2c                mmc_get_blk_desc
 .text.get_mmc_num
                0x000000004a026f34        0xc drivers/built-in.o
                0x000000004a026f34                get_mmc_num
 .text.mmc_do_preinit
                0x000000004a026f40       0x44 drivers/built-in.o
                0x000000004a026f40                mmc_do_preinit
 .text.mmc_list_init
                0x000000004a026f84       0x1c drivers/built-in.o
                0x000000004a026f84                mmc_list_init
 .text.mmc_list_add
                0x000000004a026fa0       0x20 drivers/built-in.o
                0x000000004a026fa0                mmc_list_add
 .text.print_mmc_devices
                0x000000004a026fc0       0xd4 drivers/built-in.o
                0x000000004a026fc0                print_mmc_devices
 .text.mmc_create
                0x000000004a027094       0xd4 drivers/built-in.o
                0x000000004a027094                mmc_create
 .text.mmc_berase
                0x000000004a027168      0x1d8 drivers/built-in.o
                0x000000004a027168                mmc_berase
 .text.mmc_bwrite
                0x000000004a027340      0x1a4 drivers/built-in.o
                0x000000004a027340                mmc_bwrite
 .text.sunxi_mmc_core_init
                0x000000004a0274e4       0x30 drivers/built-in.o
 .text.sunxi_mmc_getcd_gpio
                0x000000004a027514       0x40 drivers/built-in.o
 .text.sunxi_mmc_getcd_legacy
                0x000000004a027554       0x34 drivers/built-in.o
 .text.mmc_update_clk.isra.1
                0x000000004a027588       0x7c drivers/built-in.o
 .text.mmc_rint_wait.isra.3
                0x000000004a027604       0x70 drivers/built-in.o
 .text.sunxi_mmc_send_cmd_legacy
                0x000000004a027674      0x30c drivers/built-in.o
 .text.mmc_set_mod_clk
                0x000000004a027980      0x104 drivers/built-in.o
 .text.sunxi_mmc_set_ios_legacy
                0x000000004a027a84       0xf8 drivers/built-in.o
 .text.sunxi_mmc_init
                0x000000004a027b7c      0x224 drivers/built-in.o
                0x000000004a027b7c                sunxi_mmc_init
 .text.display_enable
                0x000000004a027da0       0x58 drivers/built-in.o
                0x000000004a027da0                display_enable
 .text.display_read_timing
                0x000000004a027df8       0x7c drivers/built-in.o
                0x000000004a027df8                display_read_timing
 .text.display_in_use
                0x000000004a027e74       0x18 drivers/built-in.o
                0x000000004a027e74                display_in_use
 .text.backlight_enable
                0x000000004a027e8c       0x1c drivers/built-in.o
                0x000000004a027e8c                backlight_enable
 .text.simple_panel_probe
                0x000000004a027ea8       0x18 drivers/built-in.o
 .text.simple_panel_enable_backlight
                0x000000004a027ec0       0x30 drivers/built-in.o
 .text.simple_panel_ofdata_to_platdata
                0x000000004a027ef0       0x68 drivers/built-in.o
 .text.alloc_fb
                0x000000004a027f58       0x60 drivers/built-in.o
 .text.video_pre_remove
                0x000000004a027fb8       0x20 drivers/built-in.o
 .text.video_pre_probe
                0x000000004a027fd8       0x3c drivers/built-in.o
 .text.video_post_bind
                0x000000004a028014       0x64 drivers/built-in.o
 .text.video_set_flush_dcache
                0x000000004a028078       0x24 drivers/built-in.o
                0x000000004a028078                video_set_flush_dcache
 .text.video_reserve
                0x000000004a02809c       0x58 drivers/built-in.o
                0x000000004a02809c                video_reserve
 .text.video_clear
                0x000000004a0280f4       0x50 drivers/built-in.o
                0x000000004a0280f4                video_clear
 .text.video_post_probe
                0x000000004a028144       0xe8 drivers/built-in.o
 .text.video_sync
                0x000000004a02822c       0x3c drivers/built-in.o
                0x000000004a02822c                video_sync
 .text.video_sync_all
                0x000000004a028268       0x3c drivers/built-in.o
                0x000000004a028268                video_sync_all
 .text.video_get_xsize
                0x000000004a0282a4       0x18 drivers/built-in.o
                0x000000004a0282a4                video_get_xsize
 .text.video_get_ysize
                0x000000004a0282bc       0x18 drivers/built-in.o
                0x000000004a0282bc                video_get_ysize
 .text.vidconsole_pre_probe
                0x000000004a0282d4       0x3c drivers/built-in.o
 .text.parsenum
                0x000000004a028310       0x30 drivers/built-in.o
 .text.vidconsole_post_probe
                0x000000004a028340       0x8c drivers/built-in.o
 .text.set_color.isra.0
                0x000000004a0283cc       0x84 drivers/built-in.o
 .text.vidconsole_putc_xy
                0x000000004a028450       0x20 drivers/built-in.o
                0x000000004a028450                vidconsole_putc_xy
 .text.vidconsole_move_rows
                0x000000004a028470       0x1c drivers/built-in.o
                0x000000004a028470                vidconsole_move_rows
 .text.vidconsole_set_row
                0x000000004a02848c       0x1c drivers/built-in.o
                0x000000004a02848c                vidconsole_set_row
 .text.vidconsole_newline
                0x000000004a0284a8       0xa4 drivers/built-in.o
 .text.vidconsole_put_char
                0x000000004a02854c      0x328 drivers/built-in.o
                0x000000004a02854c                vidconsole_put_char
 .text.vidconsole_puts
                0x000000004a028874       0x3c drivers/built-in.o
 .text.vidconsole_putc
                0x000000004a0288b0       0x28 drivers/built-in.o
 .text.do_video_puts
                0x000000004a0288d8       0x6c drivers/built-in.o
 .text.vidconsole_position_cursor
                0x000000004a028944       0x70 drivers/built-in.o
                0x000000004a028944                vidconsole_position_cursor
 .text.do_video_setcursor
                0x000000004a0289b4       0x84 drivers/built-in.o
 .text.console_normal_set_row
                0x000000004a028a38       0xbc drivers/built-in.o
 .text.console_normal_putc_xy
                0x000000004a028af4      0x15c drivers/built-in.o
 .text.console_normal_probe
                0x000000004a028c50       0x54 drivers/built-in.o
 .text.console_normal_move_rows
                0x000000004a028ca4       0x60 drivers/built-in.o
 .text.sunxi_de2_bind
                0x000000004a028d04       0x24 drivers/built-in.o
 .text.sunxi_de2_init.constprop.0
                0x000000004a028d28      0x3d8 drivers/built-in.o
 .text.sunxi_de2_probe
                0x000000004a029100       0xfc drivers/built-in.o
 .text.sunxi_simplefb_setup
                0x000000004a0291fc      0x144 drivers/built-in.o
                0x000000004a0291fc                sunxi_simplefb_setup
 .text.sunxi_dw_hdmi_read_edid
                0x000000004a029340       0x2c drivers/built-in.o
 .text.sunxi_dw_hdmi_probe
                0x000000004a02936c      0x2fc drivers/built-in.o
 .text.sunxi_dw_hdmi_phy_cfg
                0x000000004a029668      0x478 drivers/built-in.o
 .text.sunxi_dw_hdmi_enable
                0x000000004a029ae0      0x17c drivers/built-in.o
 .text.sunxi_simplefb_fdt_match
                0x000000004a029c5c       0x88 drivers/built-in.o
                0x000000004a029c5c                sunxi_simplefb_fdt_match
 .text.lcdc_init
                0x000000004a029ce4       0x34 drivers/built-in.o
                0x000000004a029ce4                lcdc_init
 .text.lcdc_enable
                0x000000004a029d18       0x10 drivers/built-in.o
                0x000000004a029d18                lcdc_enable
 .text.lcdc_tcon0_mode_set
                0x000000004a029d28      0x1bc drivers/built-in.o
                0x000000004a029d28                lcdc_tcon0_mode_set
 .text.lcdc_tcon1_mode_set
                0x000000004a029ee4      0x16c drivers/built-in.o
                0x000000004a029ee4                lcdc_tcon1_mode_set
 .text.lcdc_pll_set
                0x000000004a02a050       0xd8 drivers/built-in.o
                0x000000004a02a050                lcdc_pll_set
 .text.hdmi_write
                0x000000004a02a128       0x48 drivers/built-in.o
 .text.hdmi_read
                0x000000004a02a170       0x50 drivers/built-in.o
 .text.hdmi_mod
                0x000000004a02a1c0       0x3c drivers/built-in.o
 .text.hdmi_read_edid
                0x000000004a02a1fc      0x168 drivers/built-in.o
 .text.dw_hdmi_read_edid
                0x000000004a02a364       0x58 drivers/built-in.o
                0x000000004a02a364                dw_hdmi_read_edid
 .text.dw_hdmi_enable
                0x000000004a02a3bc      0x4b4 drivers/built-in.o
                0x000000004a02a3bc                dw_hdmi_enable
 .text.dw_hdmi_init
                0x000000004a02a870       0x3c drivers/built-in.o
                0x000000004a02a870                dw_hdmi_init
 .text.sunxi_lcd_enable
                0x000000004a02a8ac       0xcc drivers/built-in.o
 .text.sunxi_lcd_read_timing
                0x000000004a02a978       0x34 drivers/built-in.o
 .text.sunxi_lcd_probe
                0x000000004a02a9ac       0xb8 drivers/built-in.o
 .text.keyboard_start
                0x000000004a02aa64       0x20 drivers/built-in.o
 .text.keyboard_stop
                0x000000004a02aa84       0x20 drivers/built-in.o
 .text.keyboard_pre_probe
                0x000000004a02aaa4       0x78 drivers/built-in.o
 .text.keyboard_tstc
                0x000000004a02ab1c       0x60 drivers/built-in.o
 .text.keyboard_getc
                0x000000004a02ab7c       0x60 drivers/built-in.o
 .text.input_tstc
                0x000000004a02abdc       0x48 drivers/built-in.o
                0x000000004a02abdc                input_tstc
 .text.input_getc
                0x000000004a02ac24       0x5c drivers/built-in.o
                0x000000004a02ac24                input_getc
 .text.input_init
                0x000000004a02ac80       0x34 drivers/built-in.o
                0x000000004a02ac80                input_init
 .text.get_function
                0x000000004a02acb4       0xac drivers/gpio/built-in.o
 .text.gpio_to_device
                0x000000004a02ad60       0x88 drivers/gpio/built-in.o
 .text.check_reserved
                0x000000004a02ade8       0x7c drivers/gpio/built-in.o
 .text.gpio_renumber
                0x000000004a02ae64       0x94 drivers/gpio/built-in.o
 .text.gpio_pre_remove
                0x000000004a02aef8       0x5c drivers/gpio/built-in.o
 .text.gpio_post_probe
                0x000000004a02af54       0x48 drivers/gpio/built-in.o
 .text.dm_gpio_lookup_name
                0x000000004a02af9c      0x10c drivers/gpio/built-in.o
                0x000000004a02af9c                dm_gpio_lookup_name
 .text.gpio_lookup_name
                0x000000004a02b0a8       0x7c drivers/gpio/built-in.o
                0x000000004a02b0a8                gpio_lookup_name
 .text.gpio_xlate_offs_flags
                0x000000004a02b124       0x38 drivers/gpio/built-in.o
                0x000000004a02b124                gpio_xlate_offs_flags
 .text.dm_gpio_request
                0x000000004a02b15c       0xb0 drivers/gpio/built-in.o
                0x000000004a02b15c                dm_gpio_request
 .text.dm_gpio_requestf
                0x000000004a02b20c       0xa0 drivers/gpio/built-in.o
 .text.gpio_request
                0x000000004a02b2ac       0x34 drivers/gpio/built-in.o
                0x000000004a02b2ac                gpio_request
 .text._dm_gpio_free
                0x000000004a02b2e0       0x84 drivers/gpio/built-in.o
                0x000000004a02b2e0                _dm_gpio_free
 .text.gpio_free
                0x000000004a02b364       0x28 drivers/gpio/built-in.o
                0x000000004a02b364                gpio_free
 .text.gpio_direction_input
                0x000000004a02b38c       0x48 drivers/gpio/built-in.o
                0x000000004a02b38c                gpio_direction_input
 .text.gpio_direction_output
                0x000000004a02b3d4       0x58 drivers/gpio/built-in.o
                0x000000004a02b3d4                gpio_direction_output
 .text.dm_gpio_get_value
                0x000000004a02b42c       0x54 drivers/gpio/built-in.o
                0x000000004a02b42c                dm_gpio_get_value
 .text.dm_gpio_set_value
                0x000000004a02b480       0x6c drivers/gpio/built-in.o
                0x000000004a02b480                dm_gpio_set_value
 .text.dm_gpio_set_dir_flags
                0x000000004a02b4ec       0xac drivers/gpio/built-in.o
                0x000000004a02b4ec                dm_gpio_set_dir_flags
 .text.gpio_request_tail
                0x000000004a02b598       0xfc drivers/gpio/built-in.o
 .text.gpio_get_value
                0x000000004a02b694       0x24 drivers/gpio/built-in.o
                0x000000004a02b694                gpio_get_value
 .text.gpio_set_value
                0x000000004a02b6b8       0x34 drivers/gpio/built-in.o
                0x000000004a02b6b8                gpio_set_value
 .text.gpio_get_bank_info
                0x000000004a02b6ec       0x2c drivers/gpio/built-in.o
                0x000000004a02b6ec                gpio_get_bank_info
 .text.gpio_get_function
                0x000000004a02b718        0xc drivers/gpio/built-in.o
                0x000000004a02b718                gpio_get_function
 .text.gpio_get_raw_function
                0x000000004a02b724        0xc drivers/gpio/built-in.o
                0x000000004a02b724                gpio_get_raw_function
 .text.gpio_get_status
                0x000000004a02b730      0x134 drivers/gpio/built-in.o
                0x000000004a02b730                gpio_get_status
 .text.gpio_request_by_name
                0x000000004a02b864       0x7c drivers/gpio/built-in.o
                0x000000004a02b864                gpio_request_by_name
 .text.sunxi_gpio_set_value
                0x000000004a02b8e0       0x50 drivers/gpio/built-in.o
 .text.sunxi_gpio_get_value
                0x000000004a02b930       0x38 drivers/gpio/built-in.o
 .text.sunxi_gpio_get_function
                0x000000004a02b968       0x40 drivers/gpio/built-in.o
 .text.sunxi_gpio_direction_output
                0x000000004a02b9a8       0x6c drivers/gpio/built-in.o
 .text.sunxi_gpio_direction_input
                0x000000004a02ba14       0x34 drivers/gpio/built-in.o
 .text.gpio_sunxi_probe
                0x000000004a02ba48       0x44 drivers/gpio/built-in.o
 .text.gpio_sunxi_bind
                0x000000004a02ba8c       0xf0 drivers/gpio/built-in.o
 .text.sunxi_gpio_xlate
                0x000000004a02bb7c       0x44 drivers/gpio/built-in.o
 .text.sunxi_name_to_gpio
                0x000000004a02bbc0       0x2c drivers/gpio/built-in.o
                0x000000004a02bbc0                sunxi_name_to_gpio
 .text.dm_i2c_set_bus_speed
                0x000000004a02bbec       0x5c drivers/i2c/built-in.o
                0x000000004a02bbec                dm_i2c_set_bus_speed
 .text.i2c_post_probe
                0x000000004a02bc48       0x48 drivers/i2c/built-in.o
 .text.i2c_chip_ofdata_to_platdata
                0x000000004a02bc90       0x64 drivers/i2c/built-in.o
                0x000000004a02bc90                i2c_chip_ofdata_to_platdata
 .text.i2c_child_post_bind
                0x000000004a02bcf4       0x44 drivers/i2c/built-in.o
 .text.sun8i_emac_eth_stop
                0x000000004a02bd38       0x44 drivers/net/built-in.o
 .text.sun8i_eth_free_pkt
                0x000000004a02bd7c       0x58 drivers/net/built-in.o
 .text.sun8i_emac_eth_recv
                0x000000004a02bdd4       0xb4 drivers/net/built-in.o
 .text.sun8i_emac_eth_send
                0x000000004a02be88       0xf8 drivers/net/built-in.o
 .text.sun8i_emac_eth_ofdata_to_platdata
                0x000000004a02bf80      0x2e4 drivers/net/built-in.o
 .text.sun8i_mdio_reset
                0x000000004a02c264       0xac drivers/net/built-in.o
 .text.sun8i_mdio_write
                0x000000004a02c310       0xa0 drivers/net/built-in.o
 .text.sun8i_mdio_read
                0x000000004a02c3b0       0x90 drivers/net/built-in.o
 .text._sun8i_write_hwaddr.isra.0
                0x000000004a02c440       0x48 drivers/net/built-in.o
 .text.sun8i_eth_write_hwaddr
                0x000000004a02c488       0x38 drivers/net/built-in.o
 .text.sun8i_emac_eth_start
                0x000000004a02c4c0      0x238 drivers/net/built-in.o
 .text.sun8i_emac_eth_probe
                0x000000004a02c6f8      0x1b0 drivers/net/built-in.o
 .text.genphy_shutdown
                0x000000004a02c8a8        0x8 drivers/net/phy/built-in.o
                0x000000004a02c8a8                genphy_shutdown
 .text.genphy_restart_aneg
                0x000000004a02c8b0       0x64 drivers/net/phy/built-in.o
                0x000000004a02c8b0                genphy_restart_aneg
 .text.genphy_config_aneg
                0x000000004a02c914      0x210 drivers/net/phy/built-in.o
                0x000000004a02c914                genphy_config_aneg
 .text.genphy_config
                0x000000004a02cb24       0xec drivers/net/phy/built-in.o
                0x000000004a02cb24                genphy_config
 .text.genphy_update_link
                0x000000004a02cc10      0x154 drivers/net/phy/built-in.o
                0x000000004a02cc10                genphy_update_link
 .text.genphy_parse_link
                0x000000004a02cd64      0x1ac drivers/net/phy/built-in.o
                0x000000004a02cd64                genphy_parse_link
 .text.genphy_startup
                0x000000004a02cf10       0x34 drivers/net/phy/built-in.o
                0x000000004a02cf10                genphy_startup
 .text.phy_init
                0x000000004a02cf44        0x8 drivers/net/phy/built-in.o
                0x000000004a02cf44                phy_init
 .text.get_phy_id
                0x000000004a02cf4c       0x80 drivers/net/phy/built-in.o
                0x000000004a02cf4c                get_phy_id
 .text.get_phy_device_by_mask
                0x000000004a02cfcc      0x2c4 drivers/net/phy/built-in.o
 .text.phy_reset
                0x000000004a02d290       0xc8 drivers/net/phy/built-in.o
                0x000000004a02d290                phy_reset
 .text.phy_find_by_mask
                0x000000004a02d358       0x4c drivers/net/phy/built-in.o
                0x000000004a02d358                phy_find_by_mask
 .text.phy_connect_dev
                0x000000004a02d3a4       0x58 drivers/net/phy/built-in.o
                0x000000004a02d3a4                phy_connect_dev
 .text.phy_connect
                0x000000004a02d3fc       0x68 drivers/net/phy/built-in.o
                0x000000004a02d3fc                phy_connect
 .text.board_phy_config
                0x000000004a02d464       0x18 drivers/net/phy/built-in.o
                0x000000004a02d464                board_phy_config
 .text.phy_config
                0x000000004a02d47c        0x4 drivers/net/phy/built-in.o
                0x000000004a02d47c                phy_config
 .text.phy_shutdown
                0x000000004a02d480       0x2c drivers/net/phy/built-in.o
                0x000000004a02d480                phy_shutdown
 .text.phy_get_interface_by_name
                0x000000004a02d4ac       0x58 drivers/net/phy/built-in.o
                0x000000004a02d4ac                phy_get_interface_by_name
 .text._serial_putc
                0x000000004a02d504       0x58 drivers/serial/built-in.o
 .text.__serial_getc
                0x000000004a02d55c       0x40 drivers/serial/built-in.o
 .text.__serial_tstc
                0x000000004a02d59c       0x20 drivers/serial/built-in.o
 .text.serial_stub_putc
                0x000000004a02d5bc        0x8 drivers/serial/built-in.o
 .text.serial_stub_getc
                0x000000004a02d5c4        0x8 drivers/serial/built-in.o
 .text.serial_stub_tstc
                0x000000004a02d5cc        0x8 drivers/serial/built-in.o
 .text.serial_pre_remove
                0x000000004a02d5d4       0x28 drivers/serial/built-in.o
 .text.serial_post_probe
                0x000000004a02d5fc       0xcc drivers/serial/built-in.o
 .text.serial_stub_puts
                0x000000004a02d6c8       0x38 drivers/serial/built-in.o
 .text.serial_init
                0x000000004a02d700      0x154 drivers/serial/built-in.o
                0x000000004a02d700                serial_init
 .text.serial_initialize
                0x000000004a02d854        0x4 drivers/serial/built-in.o
                0x000000004a02d854                serial_initialize
 .text.serial_putc
                0x000000004a02d858       0x18 drivers/serial/built-in.o
                0x000000004a02d858                serial_putc
 .text.serial_puts
                0x000000004a02d870       0x44 drivers/serial/built-in.o
                0x000000004a02d870                serial_puts
 .text.serial_getc
                0x000000004a02d8b4       0x18 drivers/serial/built-in.o
                0x000000004a02d8b4                serial_getc
 .text.serial_tstc
                0x000000004a02d8cc       0x18 drivers/serial/built-in.o
                0x000000004a02d8cc                serial_tstc
 .text.serial_setbrg
                0x000000004a02d8e4       0x2c drivers/serial/built-in.o
                0x000000004a02d8e4                serial_setbrg
 .text.on_baudrate
                0x000000004a02d910      0x110 drivers/serial/built-in.o
 .text.serial_stdio_init
                0x000000004a02da20        0x4 drivers/serial/built-in.o
                0x000000004a02da20                serial_stdio_init
 .text.ns16550_serial_ofdata_to_platdata
                0x000000004a02da24       0xc0 drivers/serial/built-in.o
                0x000000004a02da24                ns16550_serial_ofdata_to_platdata
 .text.ns16550_writeb.isra.0
                0x000000004a02dae4       0x24 drivers/serial/built-in.o
 .text.NS16550_setbrg
                0x000000004a02db08       0x54 drivers/serial/built-in.o
 .text.ns16550_serial_setbrg
                0x000000004a02db5c       0x3c drivers/serial/built-in.o
 .text.ns16550_readb.isra.1
                0x000000004a02db98       0x24 drivers/serial/built-in.o
 .text.ns16550_serial_pending
                0x000000004a02dbbc       0x44 drivers/serial/built-in.o
 .text.ns16550_serial_putc
                0x000000004a02dc00       0x50 drivers/serial/built-in.o
 .text.ns16550_serial_getc
                0x000000004a02dc50       0x3c drivers/serial/built-in.o
 .text.NS16550_init
                0x000000004a02dc8c       0x70 drivers/serial/built-in.o
                0x000000004a02dc8c                NS16550_init
 .text.ns16550_serial_probe
                0x000000004a02dcfc       0x40 drivers/serial/built-in.o
                0x000000004a02dcfc                ns16550_serial_probe
 .text.usb_match_device
                0x000000004a02dd3c       0xd4 drivers/usb/host/built-in.o
 .text.usb_child_post_bind
                0x000000004a02de10       0x88 drivers/usb/host/built-in.o
 .text.usb_match_one_id_intf.isra.0
                0x000000004a02de98       0x84 drivers/usb/host/built-in.o
 .text.remove_inactive_children.isra.2
                0x000000004a02df1c       0x80 drivers/usb/host/built-in.o
 .text.usb_disable_asynch
                0x000000004a02df9c       0x1c drivers/usb/host/built-in.o
                0x000000004a02df9c                usb_disable_asynch
 .text.submit_int_msg
                0x000000004a02dfb8       0x38 drivers/usb/host/built-in.o
                0x000000004a02dfb8                submit_int_msg
 .text.submit_control_msg
                0x000000004a02dff0       0x98 drivers/usb/host/built-in.o
                0x000000004a02dff0                submit_control_msg
 .text.submit_bulk_msg
                0x000000004a02e088       0x34 drivers/usb/host/built-in.o
                0x000000004a02e088                submit_bulk_msg
 .text.create_int_queue
                0x000000004a02e0bc       0x3c drivers/usb/host/built-in.o
                0x000000004a02e0bc                create_int_queue
 .text.poll_int_queue
                0x000000004a02e0f8       0x2c drivers/usb/host/built-in.o
                0x000000004a02e0f8                poll_int_queue
 .text.destroy_int_queue
                0x000000004a02e124       0x2c drivers/usb/host/built-in.o
                0x000000004a02e124                destroy_int_queue
 .text.usb_alloc_device
                0x000000004a02e150       0x24 drivers/usb/host/built-in.o
                0x000000004a02e150                usb_alloc_device
 .text.usb_reset_root_port
                0x000000004a02e174       0x24 drivers/usb/host/built-in.o
                0x000000004a02e174                usb_reset_root_port
 .text.usb_update_hub_device
                0x000000004a02e198       0x24 drivers/usb/host/built-in.o
                0x000000004a02e198                usb_update_hub_device
 .text.usb_get_max_xfer_size
                0x000000004a02e1bc       0x20 drivers/usb/host/built-in.o
                0x000000004a02e1bc                usb_get_max_xfer_size
 .text.usb_stop
                0x000000004a02e1dc       0xb8 drivers/usb/host/built-in.o
                0x000000004a02e1dc                usb_stop
 .text.usb_get_bus
                0x000000004a02e294       0x3c drivers/usb/host/built-in.o
                0x000000004a02e294                usb_get_bus
 .text.usb_scan_device
                0x000000004a02e2d0      0x298 drivers/usb/host/built-in.o
                0x000000004a02e2d0                usb_scan_device
 .text.usb_scan_bus.isra.3
                0x000000004a02e568       0x80 drivers/usb/host/built-in.o
 .text.usb_init
                0x000000004a02e5e8      0x1c8 drivers/usb/host/built-in.o
                0x000000004a02e5e8                usb_init
 .text.usb_child_pre_probe
                0x000000004a02e7b0       0x84 drivers/usb/host/built-in.o
                0x000000004a02e7b0                usb_child_pre_probe
 .text.ep_rev   0x000000004a02e834       0x38 drivers/usb/host/built-in.o
 .text.urb_free_priv
                0x000000004a02e86c       0x3c drivers/usb/host/built-in.o
 .text.ohci_get_ohci_dev
                0x000000004a02e8a8       0x9c drivers/usb/host/built-in.o
 .text.td_fill.isra.2
                0x000000004a02e944      0x104 drivers/usb/host/built-in.o
 .text.ohci_destroy_int_queue
                0x000000004a02ea48       0x54 drivers/usb/host/built-in.o
 .text.hc_reset
                0x000000004a02ea9c       0xf4 drivers/usb/host/built-in.o
 .text.hc_interrupt
                0x000000004a02eb90      0x5ac drivers/usb/host/built-in.o
 .text.ohci_poll_int_queue
                0x000000004a02f13c       0x60 drivers/usb/host/built-in.o
 .text.sohci_submit_job
                0x000000004a02f19c      0x7ec drivers/usb/host/built-in.o
                0x000000004a02f19c                sohci_submit_job
 .text.ohci_create_int_queue
                0x000000004a02f988      0x158 drivers/usb/host/built-in.o
 .text.submit_common_msg
                0x000000004a02fae0      0x19c drivers/usb/host/built-in.o
 .text.ohci_submit_int_msg
                0x000000004a02fc7c       0x5c drivers/usb/host/built-in.o
 .text.ohci_submit_bulk_msg
                0x000000004a02fcd8       0x50 drivers/usb/host/built-in.o
 .text.ohci_submit_control_msg
                0x000000004a02fd28      0x55c drivers/usb/host/built-in.o
 .text.ohci_register
                0x000000004a030284      0x190 drivers/usb/host/built-in.o
                0x000000004a030284                ohci_register
 .text.ohci_deregister
                0x000000004a030414       0x40 drivers/usb/host/built-in.o
                0x000000004a030414                ohci_deregister
 .text.ohci_usb_remove
                0x000000004a030454       0x78 drivers/usb/host/built-in.o
 .text.ohci_usb_probe
                0x000000004a0304cc       0xc8 drivers/usb/host/built-in.o
 .text.ehci_get_port_speed
                0x000000004a030594        0x8 drivers/usb/host/built-in.o
 .text.ehci_set_usbmode
                0x000000004a03059c       0x20 drivers/usb/host/built-in.o
 .text.ehci_get_portsc_register
                0x000000004a0305bc       0x38 drivers/usb/host/built-in.o
 .text.ehci_get_max_xfer_size
                0x000000004a0305f4       0x10 drivers/usb/host/built-in.o
 .text.ehci_powerup_fixup
                0x000000004a030604       0x30 drivers/usb/host/built-in.o
 .text.handshake
                0x000000004a030634       0x74 drivers/usb/host/built-in.o
 .text.ehci_td_buffer
                0x000000004a0306a8       0x94 drivers/usb/host/built-in.o
 .text.ehci_shutdown
                0x000000004a03073c      0x104 drivers/usb/host/built-in.o
 .text._ehci_poll_int_queue
                0x000000004a030840       0xe0 drivers/usb/host/built-in.o
 .text.ehci_poll_int_queue
                0x000000004a030920        0xc drivers/usb/host/built-in.o
 .text.disable_periodic.isra.1
                0x000000004a03092c       0x54 drivers/usb/host/built-in.o
 .text.enable_periodic.isra.2
                0x000000004a030980       0x5c drivers/usb/host/built-in.o
 .text.ehci_get_ctrl.isra.3
                0x000000004a0309dc       0x14 drivers/usb/host/built-in.o
 .text._ehci_destroy_int_queue
                0x000000004a0309f0       0xf8 drivers/usb/host/built-in.o
 .text.ehci_destroy_int_queue
                0x000000004a030ae8        0xc drivers/usb/host/built-in.o
 .text.ehci_update_endpt2_dev_n_port.isra.4
                0x000000004a030af4       0x60 drivers/usb/host/built-in.o
 .text.ehci_submit_async
                0x000000004a030b54      0x5c4 drivers/usb/host/built-in.o
 .text.ehci_submit_bulk_msg
                0x000000004a031118       0x2c drivers/usb/host/built-in.o
 .text._ehci_create_int_queue.isra.5
                0x000000004a031144      0x3b8 drivers/usb/host/built-in.o
 .text.ehci_create_int_queue
                0x000000004a0314fc       0x18 drivers/usb/host/built-in.o
 .text.ehci_submit_int_msg
                0x000000004a031514       0xd0 drivers/usb/host/built-in.o
 .text.ehci_submit_control_msg
                0x000000004a0315e4      0x5ac drivers/usb/host/built-in.o
 .text.ehci_register
                0x000000004a031b90      0x368 drivers/usb/host/built-in.o
                0x000000004a031b90                ehci_register
 .text.ehci_deregister
                0x000000004a031ef8       0x28 drivers/usb/host/built-in.o
                0x000000004a031ef8                ehci_deregister
 .text.ehci_usb_remove
                0x000000004a031f20       0x64 drivers/usb/host/built-in.o
 .text.ehci_usb_probe
                0x000000004a031f84       0xc8 drivers/usb/host/built-in.o
 .text.env_get_yesno
                0x000000004a03204c       0x44 env/built-in.o
                0x000000004a03204c                env_get_yesno
 .text.env_get_default
                0x000000004a032090       0x3c env/built-in.o
                0x000000004a032090                env_get_default
 .text.set_default_env
                0x000000004a0320cc       0xa8 env/built-in.o
                0x000000004a0320cc                set_default_env
 .text.set_default_vars
                0x000000004a032174       0x2c env/built-in.o
                0x000000004a032174                set_default_vars
 .text.env_import
                0x000000004a0321a0       0xc8 env/built-in.o
                0x000000004a0321a0                env_import
 .text.env_export
                0x000000004a032268       0x80 env/built-in.o
                0x000000004a032268                env_export
 .text.env_relocate
                0x000000004a0322e8       0x2c env/built-in.o
                0x000000004a0322e8                env_relocate
 .text.env_complete
                0x000000004a032314      0x100 env/built-in.o
                0x000000004a032314                env_complete
 .text.env_driver_lookup_default
                0x000000004a032414       0x54 env/built-in.o
                0x000000004a032414                env_driver_lookup_default
 .text.env_get_char
                0x000000004a032468       0x54 env/built-in.o
                0x000000004a032468                env_get_char
 .text.env_load
                0x000000004a0324bc       0x34 env/built-in.o
                0x000000004a0324bc                env_load
 .text.env_save
                0x000000004a0324f0       0x34 env/built-in.o
                0x000000004a0324f0                env_save
 .text.env_init
                0x000000004a032524       0x50 env/built-in.o
                0x000000004a032524                env_init
 .text.regex_callback
                0x000000004a032574      0x148 env/built-in.o
 .text.env_attr_walk
                0x000000004a0326bc      0x144 env/built-in.o
                0x000000004a0326bc                env_attr_walk
 .text.env_attr_lookup
                0x000000004a032800       0x7c env/built-in.o
                0x000000004a032800                env_attr_lookup
 .text.clear_callback
                0x000000004a03287c        0xc env/built-in.o
 .text.find_env_callback
                0x000000004a032888       0x84 env/built-in.o
 .text.on_callbacks
                0x000000004a03290c       0x60 env/built-in.o
 .text.set_callback
                0x000000004a03296c       0x90 env/built-in.o
 .text.env_callback_init
                0x000000004a0329fc       0xbc env/built-in.o
                0x000000004a0329fc                env_callback_init
 .text.skip_num
                0x000000004a032ab8       0x70 env/built-in.o
 .text.clear_flags
                0x000000004a032b28        0xc env/built-in.o
 .text.on_flags
                0x000000004a032b34       0x60 env/built-in.o
 .text.env_flags_parse_vartype
                0x000000004a032b94       0x58 env/built-in.o
                0x000000004a032b94                env_flags_parse_vartype
 .text.env_flags_parse_varaccess
                0x000000004a032bec       0x5c env/built-in.o
                0x000000004a032bec                env_flags_parse_varaccess
 .text.set_flags
                0x000000004a032c48       0xac env/built-in.o
 .text.eth_validate_ethaddr_str
                0x000000004a032cf4       0x98 env/built-in.o
                0x000000004a032cf4                eth_validate_ethaddr_str
 .text.env_flags_init
                0x000000004a032d8c       0xc8 env/built-in.o
                0x000000004a032d8c                env_flags_init
 .text.env_flags_validate
                0x000000004a032e54      0x28c env/built-in.o
                0x000000004a032e54                env_flags_validate
 .text.mmc_get_env_addr
                0x000000004a0330e0       0xfc env/built-in.o
                0x000000004a0330e0                mmc_get_env_addr
 .text.mmc_get_env_dev
                0x000000004a0331dc        0x8 env/built-in.o
                0x000000004a0331dc                mmc_get_env_dev
 .text.env_mmc_save
                0x000000004a0331e4      0x128 env/built-in.o
 .text.env_mmc_load
                0x000000004a03330c       0xfc env/built-in.o
 .text.fs_probe_unsupported
                0x000000004a033408       0x20 fs/built-in.o
 .text.fs_exists_unsupported
                0x000000004a033428        0x8 fs/built-in.o
 .text.fs_size_unsupported
                0x000000004a033430        0x8 fs/built-in.o
 .text.fs_write_unsupported
                0x000000004a033438        0x8 fs/built-in.o
 .text.fs_close_unsupported
                0x000000004a033440        0x4 fs/built-in.o
 .text.fs_uuid_unsupported
                0x000000004a033444        0x8 fs/built-in.o
 .text.fs_opendir_unsupported
                0x000000004a03344c        0x8 fs/built-in.o
 .text.fs_get_info
                0x000000004a033454       0x34 fs/built-in.o
 .text.fs_close
                0x000000004a033488       0x30 fs/built-in.o
 .text.fs_read_unsupported
                0x000000004a0334b8        0x8 fs/built-in.o
 .text.fs_ls_unsupported
                0x000000004a0334c0        0x8 fs/built-in.o
 .text.fs_set_blk_dev
                0x000000004a0334c8       0xbc fs/built-in.o
                0x000000004a0334c8                fs_set_blk_dev
 .text.fs_set_blk_dev_with_part
                0x000000004a033584       0x98 fs/built-in.o
                0x000000004a033584                fs_set_blk_dev_with_part
 .text.fs_ls    0x000000004a03361c       0x44 fs/built-in.o
                0x000000004a03361c                fs_ls
 .text.fs_exists
                0x000000004a033660       0x40 fs/built-in.o
                0x000000004a033660                fs_exists
 .text.fs_size  0x000000004a0336a0       0x48 fs/built-in.o
                0x000000004a0336a0                fs_size
 .text.fs_read  0x000000004a0336e8       0x8c fs/built-in.o
                0x000000004a0336e8                fs_read
 .text.fs_write
                0x000000004a033774       0x88 fs/built-in.o
                0x000000004a033774                fs_write
 .text.fs_opendir
                0x000000004a0337fc       0x78 fs/built-in.o
                0x000000004a0337fc                fs_opendir
 .text.fs_readdir
                0x000000004a033874       0x64 fs/built-in.o
                0x000000004a033874                fs_readdir
 .text.fs_closedir
                0x000000004a0338d8       0x48 fs/built-in.o
                0x000000004a0338d8                fs_closedir
 .text.fs_ls_generic
                0x000000004a033920       0xc0 fs/built-in.o
 .text.do_size  0x000000004a0339e0       0x68 fs/built-in.o
                0x000000004a0339e0                do_size
 .text.do_load  0x000000004a033a48      0x208 fs/built-in.o
                0x000000004a033a48                do_load
 .text.do_ls    0x000000004a033c50       0x84 fs/built-in.o
                0x000000004a033c50                do_ls
 .text.file_exists
                0x000000004a033cd4       0x3c fs/built-in.o
                0x000000004a033cd4                file_exists
 .text.do_save  0x000000004a033d10      0x144 fs/built-in.o
                0x000000004a033d10                do_save
 .text.do_fs_type
                0x000000004a033e54       0x88 fs/built-in.o
                0x000000004a033e54                do_fs_type
 .text.get_fs   0x000000004a033edc        0xc fs/built-in.o
                0x000000004a033edc                get_fs
 .text.ext4fs_free_node
                0x000000004a033ee8       0x20 fs/built-in.o
                0x000000004a033ee8                ext4fs_free_node
 .text.ext4fs_read_file
                0x000000004a033f08      0x298 fs/built-in.o
                0x000000004a033f08                ext4fs_read_file
 .text.ext4fs_ls
                0x000000004a0341a0       0x90 fs/built-in.o
                0x000000004a0341a0                ext4fs_ls
 .text.ext4fs_exists
                0x000000004a034230       0x20 fs/built-in.o
                0x000000004a034230                ext4fs_exists
 .text.ext4fs_size
                0x000000004a034250        0x4 fs/built-in.o
                0x000000004a034250                ext4fs_size
 .text.ext4fs_read
                0x000000004a034254       0x30 fs/built-in.o
                0x000000004a034254                ext4fs_read
 .text.ext4fs_probe
                0x000000004a034284       0x3c fs/built-in.o
                0x000000004a034284                ext4fs_probe
 .text.ext4_read_file
                0x000000004a0342c0       0x7c fs/built-in.o
                0x000000004a0342c0                ext4_read_file
 .text.ext4fs_uuid
                0x000000004a03433c       0x38 fs/built-in.o
                0x000000004a03433c                ext4fs_uuid
 .text.ext4fs_bg_get_inode_table_id
                0x000000004a034374       0x20 fs/built-in.o
                0x000000004a034374                ext4fs_bg_get_inode_table_id
 .text.ext4fs_read_inode
                0x000000004a034394      0x108 fs/built-in.o
                0x000000004a034394                ext4fs_read_inode
 .text.read_allocated_block
                0x000000004a03449c      0x840 fs/built-in.o
                0x000000004a03449c                read_allocated_block
 .text.ext4fs_reinit_global
                0x000000004a034cdc       0x90 fs/built-in.o
                0x000000004a034cdc                ext4fs_reinit_global
 .text.ext4fs_close
                0x000000004a034d6c       0x4c fs/built-in.o
                0x000000004a034d6c                ext4fs_close
 .text.ext4fs_iterate_dir
                0x000000004a034db8      0x288 fs/built-in.o
                0x000000004a034db8                ext4fs_iterate_dir
 .text.ext4fs_find_file1
                0x000000004a035040      0x29c fs/built-in.o
 .text.ext4fs_find_file
                0x000000004a0352dc       0x74 fs/built-in.o
                0x000000004a0352dc                ext4fs_find_file
 .text.ext4fs_open
                0x000000004a035350       0xa0 fs/built-in.o
                0x000000004a035350                ext4fs_open
 .text.ext4fs_mount
                0x000000004a0353f0       0xec fs/built-in.o
                0x000000004a0353f0                ext4fs_mount
 .text.ext4fs_set_blk_dev
                0x000000004a0354dc       0x68 fs/built-in.o
                0x000000004a0354dc                ext4fs_set_blk_dev
 .text.ext4fs_devread
                0x000000004a035544       0x50 fs/built-in.o
                0x000000004a035544                ext4fs_devread
 .text.ext4_read_superblock
                0x000000004a035594       0x48 fs/built-in.o
                0x000000004a035594                ext4_read_superblock
 .text.downcase
                0x000000004a0355dc       0x44 fs/built-in.o
 .text.disk_read
                0x000000004a035620       0x64 fs/built-in.o
 .text.mkcksum  0x000000004a035684       0x54 fs/built-in.o
 .text.check_overflow
                0x000000004a0356d8       0x44 fs/built-in.o
 .text.disk_write
                0x000000004a03571c       0x8c fs/built-in.o
 .text.flush_dirty_fat_buffer
                0x000000004a0357a8       0xb8 fs/built-in.o
 .text.set_fatent_value
                0x000000004a035860      0x1d8 fs/built-in.o
 .text.get_fatent
                0x000000004a035a38      0x18c fs/built-in.o
 .text.next_dent
                0x000000004a035bc4      0x150 fs/built-in.o
 .text.find_empty_cluster
                0x000000004a035d14       0x3c fs/built-in.o
 .text.get_name
                0x000000004a035d50       0xf4 fs/built-in.o
 .text.get_cluster
                0x000000004a035e44      0x18c fs/built-in.o
 .text.set_cluster
                0x000000004a035fd0      0x190 fs/built-in.o
 .text.read_bootsectandvi
                0x000000004a036160      0x130 fs/built-in.o
 .text.fat_itr_root
                0x000000004a036290      0x150 fs/built-in.o
 .text.set_name
                0x000000004a0363e0      0x178 fs/built-in.o
 .text.slot2str
                0x000000004a036558       0xac fs/built-in.o
 .text.fat_itr_next
                0x000000004a036604      0x134 fs/built-in.o
 .text.fat_itr_resolve
                0x000000004a036738      0x170 fs/built-in.o
 .text.flush_dir_table.constprop.10
                0x000000004a0368a8       0xec fs/built-in.o
 .text.do_fat_write
                0x000000004a036994      0xc28 fs/built-in.o
 .text.fat_set_blk_dev
                0x000000004a0375bc       0xcc fs/built-in.o
                0x000000004a0375bc                fat_set_blk_dev
 .text.file_fat_detectfs
                0x000000004a037688      0x140 fs/built-in.o
                0x000000004a037688                file_fat_detectfs
 .text.fat_exists
                0x000000004a0377c8       0x80 fs/built-in.o
                0x000000004a0377c8                fat_exists
 .text.fat_size
                0x000000004a037848       0xc0 fs/built-in.o
                0x000000004a037848                fat_size
 .text.file_fat_read_at
                0x000000004a037908      0x340 fs/built-in.o
                0x000000004a037908                file_fat_read_at
 .text.fat_read_file
                0x000000004a037c48       0x48 fs/built-in.o
                0x000000004a037c48                fat_read_file
 .text.fat_opendir
                0x000000004a037c90       0x98 fs/built-in.o
                0x000000004a037c90                fat_opendir
 .text.fat_readdir
                0x000000004a037d28       0x8c fs/built-in.o
                0x000000004a037d28                fat_readdir
 .text.fat_closedir
                0x000000004a037db4       0x28 fs/built-in.o
                0x000000004a037db4                fat_closedir
 .text.fat_close
                0x000000004a037ddc        0x4 fs/built-in.o
                0x000000004a037ddc                fat_close
 .text.file_fat_write
                0x000000004a037de0       0x74 fs/built-in.o
                0x000000004a037de0                file_fat_write
 .text.fs_devread
                0x000000004a037e54      0x258 fs/built-in.o
                0x000000004a037e54                fs_devread
 .text.efi_load_pe
                0x000000004a0380ac      0x310 lib/built-in.o
                0x000000004a0380ac                efi_load_pe
 .text.indent_string
                0x000000004a0383bc       0x40 lib/built-in.o
 .text.efi_uninstall_protocol_interface.isra.0.part.1
                0x000000004a0383fc       0xac lib/built-in.o
 .text.efi_search.isra.2.part.3
                0x000000004a0384a8       0x5c lib/built-in.o
 .text.efi_install_protocol_interface
                0x000000004a038504      0x138 lib/built-in.o
 .text.efi_locate_handle.isra.4
                0x000000004a03863c       0xe8 lib/built-in.o
 .text.__efi_entry_check
                0x000000004a038724       0x2c lib/built-in.o
                0x000000004a038724                __efi_entry_check
 .text.__efi_exit_check
                0x000000004a038750       0x24 lib/built-in.o
                0x000000004a038750                __efi_exit_check
 .text.efi_set_mem
                0x000000004a038774       0x30 lib/built-in.o
 .text.efi_copy_mem
                0x000000004a0387a4       0x30 lib/built-in.o
 .text.efi_calculate_crc32
                0x000000004a0387d4       0x44 lib/built-in.o
 .text.efi_uninstall_multiple_protocol_interfaces
                0x000000004a038818       0x50 lib/built-in.o
 .text.efi_install_multiple_protocol_interfaces
                0x000000004a038868      0x1c4 lib/built-in.o
 .text.efi_locate_protocol
                0x000000004a038a2c       0xc0 lib/built-in.o
 .text.efi_locate_handle_buffer
                0x000000004a038aec       0xc8 lib/built-in.o
 .text.efi_protocols_per_handle
                0x000000004a038bb4      0x10c lib/built-in.o
 .text.efi_open_protocol_information
                0x000000004a038cc0       0x20 lib/built-in.o
 .text.efi_open_protocol
                0x000000004a038ce0      0x130 lib/built-in.o
 .text.efi_handle_protocol
                0x000000004a038e10       0x10 lib/built-in.o
 .text.efi_disconnect_controller
                0x000000004a038e20       0x20 lib/built-in.o
 .text.efi_connect_controller
                0x000000004a038e40       0x20 lib/built-in.o
 .text.efi_set_watchdog_timer
                0x000000004a038e60       0x1c lib/built-in.o
 .text.efi_stall
                0x000000004a038e7c       0x28 lib/built-in.o
 .text.efi_get_next_monotonic_count
                0x000000004a038ea4       0x34 lib/built-in.o
 .text.efi_unload_image
                0x000000004a038ed8       0x64 lib/built-in.o
 .text.efi_locate_device_path
                0x000000004a038f3c       0x54 lib/built-in.o
 .text.efi_locate_handle_ext
                0x000000004a038f90       0x40 lib/built-in.o
 .text.efi_register_protocol_notify
                0x000000004a038fd0       0x20 lib/built-in.o
 .text.efi_uninstall_protocol_interface_ext
                0x000000004a038ff0       0x4c lib/built-in.o
 .text.efi_reinstall_protocol_interface
                0x000000004a03903c       0x1c lib/built-in.o
 .text.efi_install_protocol_interface_ext
                0x000000004a039058       0x3c lib/built-in.o
 .text.efi_close_event
                0x000000004a039094       0x7c lib/built-in.o
 .text.efi_free_pool_ext
                0x000000004a039110       0x2c lib/built-in.o
 .text.efi_allocate_pool_ext
                0x000000004a03913c       0x3c lib/built-in.o
 .text.efi_get_memory_map_ext
                0x000000004a039178       0x3c lib/built-in.o
 .text.efi_free_pages_ext
                0x000000004a0391b4       0x34 lib/built-in.o
 .text.efi_allocate_pages_ext
                0x000000004a0391e8       0x3c lib/built-in.o
 .text.efi_restore_tpl
                0x000000004a039224       0x2c lib/built-in.o
 .text.efi_raise_tpl
                0x000000004a039250       0x38 lib/built-in.o
 .text.efi_close_protocol
                0x000000004a039288       0x20 lib/built-in.o
 .text.efi_save_gd
                0x000000004a0392a8        0xc lib/built-in.o
                0x000000004a0392a8                efi_save_gd
 .text.efi_restore_gd
                0x000000004a0392b4       0x14 lib/built-in.o
                0x000000004a0392b4                efi_restore_gd
 .text.efi_exit
                0x000000004a0392c8       0x54 lib/built-in.o
 .text.__efi_nesting_inc
                0x000000004a03931c       0x14 lib/built-in.o
                0x000000004a03931c                __efi_nesting_inc
 .text.__efi_nesting_dec
                0x000000004a039330       0x14 lib/built-in.o
                0x000000004a039330                __efi_nesting_dec
 .text.efi_start_image
                0x000000004a039344       0xa4 lib/built-in.o
 .text.efi_signal_event
                0x000000004a0393e8       0x58 lib/built-in.o
                0x000000004a0393e8                efi_signal_event
 .text.efi_exit_boot_services
                0x000000004a039440       0x64 lib/built-in.o
 .text.efi_signal_event_ext
                0x000000004a0394a4       0x7c lib/built-in.o
 .text.efi_create_event
                0x000000004a039520       0x94 lib/built-in.o
                0x000000004a039520                efi_create_event
 .text.efi_create_event_ext
                0x000000004a0395b4       0x3c lib/built-in.o
 .text.efi_timer_check
                0x000000004a0395f0       0xa8 lib/built-in.o
                0x000000004a0395f0                efi_timer_check
 .text.efi_check_event
                0x000000004a039698       0xb8 lib/built-in.o
 .text.efi_wait_for_event
                0x000000004a039750      0x104 lib/built-in.o
 .text.efi_set_timer
                0x000000004a039854       0xc0 lib/built-in.o
                0x000000004a039854                efi_set_timer
 .text.efi_set_timer_ext
                0x000000004a039914       0x3c lib/built-in.o
 .text.efi_install_configuration_table
                0x000000004a039950      0x10c lib/built-in.o
                0x000000004a039950                efi_install_configuration_table
 .text.efi_install_configuration_table_ext
                0x000000004a039a5c       0x34 lib/built-in.o
 .text.efi_setup_loaded_image
                0x000000004a039a90       0xa0 lib/built-in.o
                0x000000004a039a90                efi_setup_loaded_image
 .text.efi_load_image_from_path
                0x000000004a039b30      0x134 lib/built-in.o
                0x000000004a039b30                efi_load_image_from_path
 .text.efi_load_image
                0x000000004a039c64       0xf8 lib/built-in.o
 .text.efi_get_time_boottime
                0x000000004a039d5c        0x8 lib/built-in.o
 .text.efi_reset_system_boottime
                0x000000004a039d64       0x34 lib/built-in.o
 .text.efi_reset_system_init
                0x000000004a039d98        0x4 lib/built-in.o
                0x000000004a039d98                efi_reset_system_init
 .text.efi_get_time_init
                0x000000004a039d9c        0x4 lib/built-in.o
                0x000000004a039d9c                efi_get_time_init
 .text.efi_runtime_relocate
                0x000000004a039da0       0xec lib/built-in.o
                0x000000004a039da0                efi_runtime_relocate
 .text.efi_set_virtual_address_map
                0x000000004a039e8c      0x13c lib/built-in.o
 .text.efi_key_notify
                0x000000004a039fc8        0x4 lib/built-in.o
 .text.efi_cin_lock_std_in
                0x000000004a039fcc       0x1c lib/built-in.o
 .text.efi_cin_set_mode
                0x000000004a039fe8       0x1c lib/built-in.o
 .text.efi_cin_get_mode
                0x000000004a03a004       0x50 lib/built-in.o
 .text.efi_cout_test_string
                0x000000004a03a054       0x1c lib/built-in.o
 .text.efi_cout_reset
                0x000000004a03a070       0x1c lib/built-in.o
 .text.efi_cin_reset
                0x000000004a03a08c       0x1c lib/built-in.o
 .text.efi_cout_enable_cursor
                0x000000004a03a0a8       0x44 lib/built-in.o
 .text.efi_cout_set_cursor_position
                0x000000004a03a0ec       0x4c lib/built-in.o
 .text.efi_cout_clear_screen
                0x000000004a03a138       0x28 lib/built-in.o
 .text.efi_cout_set_attribute
                0x000000004a03a160       0x68 lib/built-in.o
 .text.efi_cout_output_string
                0x000000004a03a1c8      0x140 lib/built-in.o
 .text.efi_console_timer_notify
                0x000000004a03a308       0x30 lib/built-in.o
 .text.efi_cout_set_mode
                0x000000004a03a338       0x50 lib/built-in.o
 .text.efi_cin_read_key_stroke
                0x000000004a03a388      0x158 lib/built-in.o
 .text.efi_cout_query_mode
                0x000000004a03a4e0      0x268 lib/built-in.o
 .text.efi_console_register
                0x000000004a03a748       0xf4 lib/built-in.o
                0x000000004a03a748                efi_console_register
 .text.efi_mem_cmp
                0x000000004a03a83c       0x1c lib/built-in.o
 .text.efi_find_free_memory
                0x000000004a03a858       0x68 lib/built-in.o
 .text.efi_add_memory_map
                0x000000004a03a8c0      0x210 lib/built-in.o
                0x000000004a03a8c0                efi_add_memory_map
 .text.efi_allocate_pages
                0x000000004a03aad0       0xa0 lib/built-in.o
                0x000000004a03aad0                efi_allocate_pages
 .text.efi_alloc
                0x000000004a03ab70       0x34 lib/built-in.o
                0x000000004a03ab70                efi_alloc
 .text.efi_free_pages
                0x000000004a03aba4       0x38 lib/built-in.o
                0x000000004a03aba4                efi_free_pages
 .text.efi_allocate_pool
                0x000000004a03abdc       0x60 lib/built-in.o
                0x000000004a03abdc                efi_allocate_pool
 .text.efi_free_pool
                0x000000004a03ac3c       0x1c lib/built-in.o
                0x000000004a03ac3c                efi_free_pool
 .text.efi_get_memory_map
                0x000000004a03ac58       0xcc lib/built-in.o
                0x000000004a03ac58                efi_get_memory_map
 .text.efi_add_known_memory
                0x000000004a03ad24       0x2c lib/built-in.o
                0x000000004a03ad24                efi_add_known_memory
 .text.efi_memory_init
                0x000000004a03ad50       0x70 lib/built-in.o
                0x000000004a03ad50                efi_memory_init
 .text.efi_convert_device_node_to_text.isra.1
                0x000000004a03adc0      0x444 lib/built-in.o
 .text.efi_convert_device_path_to_text
                0x000000004a03b204       0x34 lib/built-in.o
 .text.efi_convert_device_node_to_text_ext
                0x000000004a03b238       0x34 lib/built-in.o
 .text.dp_size  0x000000004a03b26c       0x64 lib/built-in.o
 .text.dp_alloc
                0x000000004a03b2d0       0x2c lib/built-in.o
 .text.dp_fill  0x000000004a03b2fc       0xfc lib/built-in.o
 .text.dp_part_fill.part.1
                0x000000004a03b3f8      0x1c0 lib/built-in.o
 .text.efi_dp_next
                0x000000004a03b5b8       0x40 lib/built-in.o
                0x000000004a03b5b8                efi_dp_next
 .text.efi_dp_match
                0x000000004a03b5f8       0x80 lib/built-in.o
                0x000000004a03b5f8                efi_dp_match
 .text.efi_dp_size
                0x000000004a03b678       0x3c lib/built-in.o
                0x000000004a03b678                efi_dp_size
 .text.find_obj
                0x000000004a03b6b4      0x124 lib/built-in.o
 .text.efi_dp_find_obj
                0x000000004a03b7d8       0x48 lib/built-in.o
                0x000000004a03b7d8                efi_dp_find_obj
 .text.efi_dp_dup
                0x000000004a03b820       0x50 lib/built-in.o
                0x000000004a03b820                efi_dp_dup
 .text.efi_dp_from_part
                0x000000004a03b870       0xb8 lib/built-in.o
                0x000000004a03b870                efi_dp_from_part
 .text.efi_dp_from_file
                0x000000004a03b928      0x134 lib/built-in.o
                0x000000004a03b928                efi_dp_from_file
 .text.efi_dp_from_eth
                0x000000004a03ba5c       0x90 lib/built-in.o
                0x000000004a03ba5c                efi_dp_from_eth
 .text.efi_dp_from_mem
                0x000000004a03baec      0x100 lib/built-in.o
                0x000000004a03baec                efi_dp_from_mem
 .text.efi_dp_split_file_path
                0x000000004a03bbec       0x84 lib/built-in.o
                0x000000004a03bbec                efi_dp_split_file_path
 .text.efi_file_flush
                0x000000004a03bc70       0x1c lib/built-in.o
 .text.efi_file_setinfo
                0x000000004a03bc8c       0x1c lib/built-in.o
 .text.efi_file_getpos
                0x000000004a03bca8       0x34 lib/built-in.o
 .text.efi_file_delete
                0x000000004a03bcdc       0x38 lib/built-in.o
 .text.set_blk_dev.isra.0
                0x000000004a03bd14        0xc lib/built-in.o
 .text.efi_file_getinfo
                0x000000004a03bd20      0x124 lib/built-in.o
 .text.efi_file_setpos
                0x000000004a03be44       0x88 lib/built-in.o
 .text.efi_file_write
                0x000000004a03becc       0x80 lib/built-in.o
 .text.efi_file_read
                0x000000004a03bf4c      0x178 lib/built-in.o
 .text.file_open
                0x000000004a03c0c4      0x27c lib/built-in.o
 .text.efi_open_volume
                0x000000004a03c340       0x44 lib/built-in.o
 .text.efi_file_open
                0x000000004a03c384       0x68 lib/built-in.o
 .text.efi_file_close
                0x000000004a03c3ec       0x38 lib/built-in.o
 .text.efi_file_from_path
                0x000000004a03c424      0x10c lib/built-in.o
                0x000000004a03c424                efi_file_from_path
 .text.efi_simple_file_system
                0x000000004a03c530       0x50 lib/built-in.o
                0x000000004a03c530                efi_simple_file_system
 .text.efi_to_native
                0x000000004a03c580       0x74 lib/built-in.o
 .text.prefix   0x000000004a03c5f4       0x50 lib/built-in.o
 .text.hex      0x000000004a03c644       0x44 lib/built-in.o
 .text.parse_attr.part.1
                0x000000004a03c688       0xc4 lib/built-in.o
 .text.efi_get_variable
                0x000000004a03c74c      0x208 lib/built-in.o
                0x000000004a03c74c                efi_get_variable
 .text.efi_get_next_variable
                0x000000004a03c954       0x1c lib/built-in.o
                0x000000004a03c954                efi_get_next_variable
 .text.efi_set_variable
                0x000000004a03c970      0x250 lib/built-in.o
                0x000000004a03c970                efi_set_variable
 .text.get_var.constprop.0
                0x000000004a03cbc0       0xd0 lib/built-in.o
 .text.efi_bootmgr_load
                0x000000004a03cc90      0x188 lib/built-in.o
                0x000000004a03cc90                efi_bootmgr_load
 .text.gop_set_mode
                0x000000004a03ce18       0x3c lib/built-in.o
 .text.gop_query_mode
                0x000000004a03ce54       0x44 lib/built-in.o
 .text.gop_blt  0x000000004a03ce98      0x168 lib/built-in.o
 .text.efi_gop_register
                0x000000004a03d000      0x130 lib/built-in.o
                0x000000004a03d000                efi_gop_register
 .text.efi_disk_flush_blocks
                0x000000004a03d130       0x1c lib/built-in.o
 .text.efi_disk_reset
                0x000000004a03d14c       0x1c lib/built-in.o
 .text.efi_disk_add_dev.isra.0.part.1
                0x000000004a03d168      0x13c lib/built-in.o
 .text.efi_disk_read_blocks
                0x000000004a03d2a4       0x98 lib/built-in.o
 .text.efi_disk_write_blocks
                0x000000004a03d33c       0x98 lib/built-in.o
 .text.efi_fs_from_path
                0x000000004a03d3d4       0x28 lib/built-in.o
                0x000000004a03d3d4                efi_fs_from_path
 .text.efi_disk_register
                0x000000004a03d3fc      0x1d8 lib/built-in.o
                0x000000004a03d3fc                efi_disk_register
 .text.efi_net_push
                0x000000004a03d5d4       0x1c lib/built-in.o
 .text.efi_network_timer_notify
                0x000000004a03d5f0       0x40 lib/built-in.o
 .text.efi_net_nvdata
                0x000000004a03d630       0x1c lib/built-in.o
 .text.efi_net_mcastiptomac
                0x000000004a03d64c       0x20 lib/built-in.o
 .text.efi_net_statistics
                0x000000004a03d66c       0x1c lib/built-in.o
 .text.efi_net_station_address
                0x000000004a03d688       0x1c lib/built-in.o
 .text.efi_net_receive_filters
                0x000000004a03d6a4       0x1c lib/built-in.o
 .text.efi_net_shutdown
                0x000000004a03d6c0       0x1c lib/built-in.o
 .text.efi_net_reset
                0x000000004a03d6dc       0x1c lib/built-in.o
 .text.efi_net_get_status
                0x000000004a03d6f8       0x64 lib/built-in.o
 .text.efi_net_initialize
                0x000000004a03d75c       0x20 lib/built-in.o
 .text.efi_net_transmit
                0x000000004a03d77c       0x64 lib/built-in.o
 .text.efi_net_receive
                0x000000004a03d7e0      0x150 lib/built-in.o
 .text.efi_net_stop
                0x000000004a03d930       0x1c lib/built-in.o
 .text.efi_net_start
                0x000000004a03d94c       0x1c lib/built-in.o
 .text.efi_net_set_dhcp_ack
                0x000000004a03d968       0x54 lib/built-in.o
                0x000000004a03d968                efi_net_set_dhcp_ack
 .text.efi_net_register
                0x000000004a03d9bc      0x230 lib/built-in.o
                0x000000004a03d9bc                efi_net_register
 .text.efi_smbios_register
                0x000000004a03dbec       0x48 lib/built-in.o
                0x000000004a03dbec                efi_smbios_register
 .text.LzmaDec_WriteRem
                0x000000004a03dc34       0x94 lib/built-in.o
 .text.LzmaDec_DecodeReal2
                0x000000004a03dcc8      0xc8c lib/built-in.o
 .text.LzmaDec_TryDummy
                0x000000004a03e954      0x630 lib/built-in.o
 .text.LzmaDec_Init
                0x000000004a03ef84       0x1c lib/built-in.o
                0x000000004a03ef84                LzmaDec_Init
 .text.LzmaDec_DecodeToDic
                0x000000004a03efa0      0x330 lib/built-in.o
                0x000000004a03efa0                LzmaDec_DecodeToDic
 .text.LzmaDec_FreeProbs
                0x000000004a03f2d0       0x30 lib/built-in.o
                0x000000004a03f2d0                LzmaDec_FreeProbs
 .text.LzmaDec_AllocateProbs2.isra.1
                0x000000004a03f300       0x7c lib/built-in.o
 .text.LzmaProps_Decode
                0x000000004a03f37c       0x90 lib/built-in.o
                0x000000004a03f37c                LzmaProps_Decode
 .text.LzmaDec_AllocateProbs
                0x000000004a03f40c       0x50 lib/built-in.o
                0x000000004a03f40c                LzmaDec_AllocateProbs
 .text.LzmaDecode
                0x000000004a03f45c       0xec lib/built-in.o
                0x000000004a03f45c                LzmaDecode
 .text.SzFree   0x000000004a03f548        0x8 lib/built-in.o
 .text.SzAlloc  0x000000004a03f550        0x8 lib/built-in.o
 .text.lzmaBuffToBuffDecompress
                0x000000004a03f558      0x108 lib/built-in.o
                0x000000004a03f558                lzmaBuffToBuffDecompress
 .text.fdt_check_header
                0x000000004a03f660       0x70 lib/built-in.o
                0x000000004a03f660                fdt_check_header
 .text.fdt_offset_ptr
                0x000000004a03f6d0       0x7c lib/built-in.o
                0x000000004a03f6d0                fdt_offset_ptr
 .text.fdt_next_tag
                0x000000004a03f74c       0xe0 lib/built-in.o
                0x000000004a03f74c                fdt_next_tag
 .text._fdt_check_node_offset
                0x000000004a03f82c       0x40 lib/built-in.o
                0x000000004a03f82c                _fdt_check_node_offset
 .text._fdt_check_prop_offset
                0x000000004a03f86c       0x40 lib/built-in.o
                0x000000004a03f86c                _fdt_check_prop_offset
 .text.fdt_next_node
                0x000000004a03f8ac       0xac lib/built-in.o
                0x000000004a03f8ac                fdt_next_node
 .text.fdt_first_subnode
                0x000000004a03f958       0x34 lib/built-in.o
                0x000000004a03f958                fdt_first_subnode
 .text.fdt_next_subnode
                0x000000004a03f98c       0x5c lib/built-in.o
                0x000000004a03f98c                fdt_next_subnode
 .text._fdt_find_string
                0x000000004a03f9e8       0x70 lib/built-in.o
                0x000000004a03f9e8                _fdt_find_string
 .text.fdt_move
                0x000000004a03fa58       0x5c lib/built-in.o
                0x000000004a03fa58                fdt_move
 .text.fdt_strerror
                0x000000004a03fab4       0x5c lib/built-in.o
                0x000000004a03fab4                fdt_strerror
 .text.fdt_address_cells
                0x000000004a03fb10       0x58 lib/built-in.o
                0x000000004a03fb10                fdt_address_cells
 .text.fdt_size_cells
                0x000000004a03fb68       0x54 lib/built-in.o
                0x000000004a03fb68                fdt_size_cells
 .text.fdt_path_next_separator
                0x000000004a03fbbc       0x68 lib/built-in.o
 .text._nextprop
                0x000000004a03fc24       0x64 lib/built-in.o
 .text.fdt_string
                0x000000004a03fc88       0x14 lib/built-in.o
                0x000000004a03fc88                fdt_string
 .text.fdt_get_mem_rsv
                0x000000004a03fc9c       0x60 lib/built-in.o
                0x000000004a03fc9c                fdt_get_mem_rsv
 .text.fdt_num_mem_rsv
                0x000000004a03fcfc       0x28 lib/built-in.o
                0x000000004a03fcfc                fdt_num_mem_rsv
 .text.fdt_subnode_offset_namelen
                0x000000004a03fd24       0xec lib/built-in.o
                0x000000004a03fd24                fdt_subnode_offset_namelen
 .text.fdt_subnode_offset
                0x000000004a03fe10       0x44 lib/built-in.o
                0x000000004a03fe10                fdt_subnode_offset
 .text.fdt_get_name
                0x000000004a03fe54       0x78 lib/built-in.o
                0x000000004a03fe54                fdt_get_name
 .text.fdt_first_property_offset
                0x000000004a03fecc       0x38 lib/built-in.o
                0x000000004a03fecc                fdt_first_property_offset
 .text.fdt_next_property_offset
                0x000000004a03ff04       0x38 lib/built-in.o
                0x000000004a03ff04                fdt_next_property_offset
 .text.fdt_get_property_by_offset
                0x000000004a03ff3c       0x70 lib/built-in.o
                0x000000004a03ff3c                fdt_get_property_by_offset
 .text.fdt_get_property_namelen
                0x000000004a03ffac       0xd4 lib/built-in.o
                0x000000004a03ffac                fdt_get_property_namelen
 .text.fdt_get_property
                0x000000004a040080       0x4c lib/built-in.o
                0x000000004a040080                fdt_get_property
 .text.fdt_getprop_namelen
                0x000000004a0400cc       0x20 lib/built-in.o
                0x000000004a0400cc                fdt_getprop_namelen
 .text.fdt_getprop_by_offset
                0x000000004a0400ec       0x54 lib/built-in.o
                0x000000004a0400ec                fdt_getprop_by_offset
 .text.fdt_getprop
                0x000000004a040140       0x4c lib/built-in.o
                0x000000004a040140                fdt_getprop
 .text.fdt_get_phandle
                0x000000004a04018c       0x78 lib/built-in.o
                0x000000004a04018c                fdt_get_phandle
 .text.fdt_get_alias_namelen
                0x000000004a040204       0x64 lib/built-in.o
                0x000000004a040204                fdt_get_alias_namelen
 .text.fdt_path_offset_namelen
                0x000000004a040268       0xf8 lib/built-in.o
                0x000000004a040268                fdt_path_offset_namelen
 .text.fdt_path_offset
                0x000000004a040360       0x34 lib/built-in.o
                0x000000004a040360                fdt_path_offset
 .text.fdt_get_alias
                0x000000004a040394       0x34 lib/built-in.o
                0x000000004a040394                fdt_get_alias
 .text.fdt_supernode_atdepth_offset
                0x000000004a0403c8       0xbc lib/built-in.o
                0x000000004a0403c8                fdt_supernode_atdepth_offset
 .text.fdt_node_depth
                0x000000004a040484       0x30 lib/built-in.o
                0x000000004a040484                fdt_node_depth
 .text.fdt_parent_offset
                0x000000004a0404b4       0x44 lib/built-in.o
                0x000000004a0404b4                fdt_parent_offset
 .text.fdt_node_offset_by_phandle
                0x000000004a0404f8       0x80 lib/built-in.o
                0x000000004a0404f8                fdt_node_offset_by_phandle
 .text.fdt_stringlist_contains
                0x000000004a040578       0x98 lib/built-in.o
                0x000000004a040578                fdt_stringlist_contains
 .text.fdt_stringlist_count
                0x000000004a040610       0x7c lib/built-in.o
                0x000000004a040610                fdt_stringlist_count
 .text.fdt_stringlist_search
                0x000000004a04068c       0xc0 lib/built-in.o
                0x000000004a04068c                fdt_stringlist_search
 .text.fdt_stringlist_get
                0x000000004a04074c       0xb0 lib/built-in.o
                0x000000004a04074c                fdt_stringlist_get
 .text.fdt_node_check_compatible
                0x000000004a0407fc       0x4c lib/built-in.o
                0x000000004a0407fc                fdt_node_check_compatible
 .text.fdt_node_offset_by_compatible
                0x000000004a040848       0x84 lib/built-in.o
                0x000000004a040848                fdt_node_offset_by_compatible
 .text._fdt_blocks_misordered
                0x000000004a0408cc       0x64 lib/built-in.o
 .text._fdt_splice
                0x000000004a040930       0x9c lib/built-in.o
 .text._fdt_splice_mem_rsv
                0x000000004a0409cc       0x6c lib/built-in.o
 .text._fdt_splice_struct
                0x000000004a040a38       0x60 lib/built-in.o
 .text._fdt_packblocks
                0x000000004a040a98       0xb0 lib/built-in.o
 .text._fdt_find_add_string
                0x000000004a040b48       0xc0 lib/built-in.o
 .text._fdt_add_property
                0x000000004a040c08       0xb0 lib/built-in.o
 .text._fdt_rw_check_header
                0x000000004a040cb8       0x68 lib/built-in.o
 .text.fdt_add_mem_rsv
                0x000000004a040d20       0x7c lib/built-in.o
                0x000000004a040d20                fdt_add_mem_rsv
 .text.fdt_del_mem_rsv
                0x000000004a040d9c       0x70 lib/built-in.o
                0x000000004a040d9c                fdt_del_mem_rsv
 .text.fdt_set_name
                0x000000004a040e0c       0xa8 lib/built-in.o
                0x000000004a040e0c                fdt_set_name
 .text.fdt_setprop_placeholder
                0x000000004a040eb4       0xd8 lib/built-in.o
                0x000000004a040eb4                fdt_setprop_placeholder
 .text.fdt_setprop
                0x000000004a040f8c       0x54 lib/built-in.o
                0x000000004a040f8c                fdt_setprop
 .text.fdt_delprop
                0x000000004a040fe0       0x74 lib/built-in.o
                0x000000004a040fe0                fdt_delprop
 .text.fdt_add_subnode_namelen
                0x000000004a041054      0x11c lib/built-in.o
                0x000000004a041054                fdt_add_subnode_namelen
 .text.fdt_add_subnode
                0x000000004a041170       0x44 lib/built-in.o
                0x000000004a041170                fdt_add_subnode
 .text.fdt_del_node
                0x000000004a0411b4       0x60 lib/built-in.o
                0x000000004a0411b4                fdt_del_node
 .text.fdt_open_into
                0x000000004a041214      0x1a0 lib/built-in.o
                0x000000004a041214                fdt_open_into
 .text._fdt_node_end_offset
                0x000000004a0413b4       0x4c lib/built-in.o
                0x000000004a0413b4                _fdt_node_end_offset
 .text.utf16_strlen
                0x000000004a041400       0x1c lib/built-in.o
                0x000000004a041400                utf16_strlen
 .text.utf16_strnlen
                0x000000004a04141c       0x24 lib/built-in.o
                0x000000004a04141c                utf16_strnlen
 .text.utf16_to_utf8
                0x000000004a041440      0x12c lib/built-in.o
                0x000000004a041440                utf16_to_utf8
 .text.crc16_ccitt
                0x000000004a04156c       0x3c lib/built-in.o
                0x000000004a04156c                crc16_ccitt
 .text.fdtdec_get_int
                0x000000004a0415a8       0x40 lib/built-in.o
                0x000000004a0415a8                fdtdec_get_int
 .text.smbios_write_type127
                0x000000004a0415e8       0x68 lib/built-in.o
 .text.smbios_write_type32
                0x000000004a041650       0x68 lib/built-in.o
 .text.smbios_string_table_len
                0x000000004a0416b8       0x44 lib/built-in.o
 .text.smbios_add_string
                0x000000004a0416fc       0x7c lib/built-in.o
 .text.smbios_write_type3
                0x000000004a041778       0xa0 lib/built-in.o
 .text.smbios_write_type2
                0x000000004a041818       0xb0 lib/built-in.o
 .text.smbios_write_type0
                0x000000004a0418c8      0x104 lib/built-in.o
 .text.smbios_write_type1
                0x000000004a0419cc       0xd4 lib/built-in.o
 .text.smbios_write_type4
                0x000000004a041aa0       0xe8 lib/built-in.o
 .text.write_smbios_table
                0x000000004a041b88      0x13c lib/built-in.o
                0x000000004a041b88                write_smbios_table
 .text.initcall_run_list
                0x000000004a041cc4       0x80 lib/built-in.o
                0x000000004a041cc4                initcall_run_list
 .text.lmb_add_region
                0x000000004a041d44      0x16c lib/built-in.o
 .text.lmb_init
                0x000000004a041eb0       0x18 lib/built-in.o
                0x000000004a041eb0                lmb_init
 .text.lmb_add  0x000000004a041ec8        0x4 lib/built-in.o
                0x000000004a041ec8                lmb_add
 .text.lmb_free
                0x000000004a041ecc       0xd0 lib/built-in.o
                0x000000004a041ecc                lmb_free
 .text.lmb_reserve
                0x000000004a041f9c        0x8 lib/built-in.o
                0x000000004a041f9c                lmb_reserve
 .text.__lmb_alloc_base
                0x000000004a041fa4      0x108 lib/built-in.o
                0x000000004a041fa4                __lmb_alloc_base
 .text.lmb_alloc_base
                0x000000004a0420ac       0x4c lib/built-in.o
                0x000000004a0420ac                lmb_alloc_base
 .text.lmb_alloc
                0x000000004a0420f8        0x8 lib/built-in.o
                0x000000004a0420f8                lmb_alloc
 .text.board_lmb_reserve
                0x000000004a042100        0x4 lib/built-in.o
                0x000000004a042100                board_lmb_reserve
 .text.MD5Transform
                0x000000004a042104      0xa00 lib/built-in.o
 .text.MD5Update
                0x000000004a042b04      0x100 lib/built-in.o
 .text.MD5Final
                0x000000004a042c04       0xc4 lib/built-in.o
 .text.md5_wd   0x000000004a042cc8       0x6c lib/built-in.o
                0x000000004a042cc8                md5_wd
 .text.string_to_ip
                0x000000004a042d34       0xa0 lib/built-in.o
                0x000000004a042d34                string_to_ip
 .text.qsort    0x000000004a042dd4       0xf0 lib/built-in.o
                0x000000004a042dd4                qsort
 .text.strcmp_compar
                0x000000004a042ec4        0xc lib/built-in.o
                0x000000004a042ec4                strcmp_compar
 .text.merge    0x000000004a042ed0       0x8c lib/built-in.o
 .text.list_sort
                0x000000004a042f5c      0x1a4 lib/built-in.o
                0x000000004a042f5c                list_sort
 .text.sha1_process
                0x000000004a043100     0x1558 lib/built-in.o
 .text.sha1_update.part.0
                0x000000004a044658      0x108 lib/built-in.o
 .text.sha1_starts
                0x000000004a044760       0x44 lib/built-in.o
                0x000000004a044760                sha1_starts
 .text.sha1_update
                0x000000004a0447a4        0xc lib/built-in.o
                0x000000004a0447a4                sha1_update
 .text.sha1_finish
                0x000000004a0447b0      0x17c lib/built-in.o
                0x000000004a0447b0                sha1_finish
 .text.sha1_csum_wd
                0x000000004a04492c       0x48 lib/built-in.o
                0x000000004a04492c                sha1_csum_wd
 .text.sha256_process
                0x000000004a044974     0x1fa8 lib/built-in.o
 .text.sha256_update.part.0
                0x000000004a04691c      0x104 lib/built-in.o
 .text.sha256_starts
                0x000000004a046a20       0x68 lib/built-in.o
                0x000000004a046a20                sha256_starts
 .text.sha256_update
                0x000000004a046a88        0xc lib/built-in.o
                0x000000004a046a88                sha256_update
 .text.sha256_finish
                0x000000004a046a94      0x1bc lib/built-in.o
                0x000000004a046a94                sha256_finish
 .text.sha256_csum_wd
                0x000000004a046c50       0x48 lib/built-in.o
                0x000000004a046c50                sha256_csum_wd
 .text.zcalloc  0x000000004a046c98        0x8 lib/built-in.o
                0x000000004a046c98                zcalloc
 .text.zcfree   0x000000004a046ca0        0x8 lib/built-in.o
                0x000000004a046ca0                zcfree
 .text.inflate_fast
                0x000000004a046ca8      0x4fc lib/built-in.o
                0x000000004a046ca8                inflate_fast
 .text.inflate_table
                0x000000004a0471a4      0x458 lib/built-in.o
                0x000000004a0471a4                inflate_table
 .text.inflateReset
                0x000000004a0475fc       0x64 lib/built-in.o
                0x000000004a0475fc                inflateReset
 .text.inflateInit2_
                0x000000004a047660      0x104 lib/built-in.o
                0x000000004a047660                inflateInit2_
 .text.inflateEnd
                0x000000004a047764       0x68 lib/built-in.o
                0x000000004a047764                inflateEnd
 .text.adler32  0x000000004a0477cc      0x2fc lib/built-in.o
                0x000000004a0477cc                adler32
 .text.inflate  0x000000004a047ac8     0x1388 lib/built-in.o
                0x000000004a047ac8                inflate
 .text.gzalloc  0x000000004a048e50       0x10 lib/built-in.o
                0x000000004a048e50                gzalloc
 .text.gzfree   0x000000004a048e60        0x8 lib/built-in.o
                0x000000004a048e60                gzfree
 .text.gzip_parse_header
                0x000000004a048e68       0xb4 lib/built-in.o
                0x000000004a048e68                gzip_parse_header
 .text.gzwrite_progress_init
                0x000000004a048f1c        0x8 lib/built-in.o
                0x000000004a048f1c                gzwrite_progress_init
 .text.gzwrite_progress
                0x000000004a048f24       0x18 lib/built-in.o
                0x000000004a048f24                gzwrite_progress
 .text.gzwrite_progress_finish
                0x000000004a048f3c       0x28 lib/built-in.o
                0x000000004a048f3c                gzwrite_progress_finish
 .text.gzwrite  0x000000004a048f64      0x3bc lib/built-in.o
                0x000000004a048f64                gzwrite
 .text.zunzip   0x000000004a049320      0x11c lib/built-in.o
                0x000000004a049320                zunzip
 .text.gunzip   0x000000004a04943c       0x68 lib/built-in.o
                0x000000004a04943c                gunzip
 .text.get_prop_check_min_len
                0x000000004a0494a4       0x44 lib/built-in.o
 .text.fdtdec_get_is_enabled
                0x000000004a0494e8       0x40 lib/built-in.o
                0x000000004a0494e8                fdtdec_get_is_enabled
 .text.fdtdec_get_alias_seq
                0x000000004a049528      0x128 lib/built-in.o
                0x000000004a049528                fdtdec_get_alias_seq
 .text.fdtdec_get_chosen_prop
                0x000000004a049650       0x44 lib/built-in.o
                0x000000004a049650                fdtdec_get_chosen_prop
 .text.fdtdec_get_chosen_node
                0x000000004a049694       0x3c lib/built-in.o
                0x000000004a049694                fdtdec_get_chosen_node
 .text.fdtdec_prepare_fdt
                0x000000004a0496d0       0x44 lib/built-in.o
                0x000000004a0496d0                fdtdec_prepare_fdt
 .text.fdtdec_lookup_phandle
                0x000000004a049714       0x44 lib/built-in.o
                0x000000004a049714                fdtdec_lookup_phandle
 .text.fdtdec_get_int_array
                0x000000004a049758       0x5c lib/built-in.o
                0x000000004a049758                fdtdec_get_int_array
 .text.decode_timing_property
                0x000000004a0497b4       0x8c lib/built-in.o
 .text.fdtdec_get_bool
                0x000000004a049840       0x20 lib/built-in.o
                0x000000004a049840                fdtdec_get_bool
 .text.fdtdec_parse_phandle_with_args
                0x000000004a049860      0x15c lib/built-in.o
                0x000000004a049860                fdtdec_parse_phandle_with_args
 .text.fdtdec_get_config_int
                0x000000004a0499bc       0x60 lib/built-in.o
                0x000000004a0499bc                fdtdec_get_config_int
 .text.fdtdec_get_config_string
                0x000000004a049a1c       0x4c lib/built-in.o
                0x000000004a049a1c                fdtdec_get_config_string
 .text.fdtdec_decode_display_timing
                0x000000004a049a68      0x300 lib/built-in.o
                0x000000004a049a68                fdtdec_decode_display_timing
 .text.fdtdec_setup
                0x000000004a049d68       0x40 lib/built-in.o
                0x000000004a049d68                fdtdec_setup
 .text.cmpkey   0x000000004a049da8       0x14 lib/built-in.o
 .text._hdelete.isra.0
                0x000000004a049dbc       0x64 lib/built-in.o
 .text.drop_var_from_set.part.1
                0x000000004a049e20       0x6c lib/built-in.o
 .text.match_string
                0x000000004a049e8c       0xd4 lib/built-in.o
 .text.match_entry
                0x000000004a049f60       0xd4 lib/built-in.o
 .text.hcreate_r
                0x000000004a04a034       0xa0 lib/built-in.o
                0x000000004a04a034                hcreate_r
 .text.hdestroy_r
                0x000000004a04a0d4       0x8c lib/built-in.o
                0x000000004a04a0d4                hdestroy_r
 .text.hmatch_r
                0x000000004a04a160       0xb8 lib/built-in.o
                0x000000004a04a160                hmatch_r
 .text.hsearch_r
                0x000000004a04a218      0x408 lib/built-in.o
                0x000000004a04a218                hsearch_r
 .text.hdelete_r
                0x000000004a04a620       0xec lib/built-in.o
                0x000000004a04a620                hdelete_r
 .text.hexport_r
                0x000000004a04a70c      0x284 lib/built-in.o
                0x000000004a04a70c                hexport_r
 .text.himport_r
                0x000000004a04a990      0x398 lib/built-in.o
                0x000000004a04a990                himport_r
 .text.hwalk_r  0x000000004a04ad28       0x70 lib/built-in.o
                0x000000004a04ad28                hwalk_r
 .text.display_options_get_banner_priv
                0x000000004a04ad98       0xb8 lib/built-in.o
                0x000000004a04ad98                display_options_get_banner_priv
 .text.display_options_get_banner
                0x000000004a04ae50       0x10 lib/built-in.o
                0x000000004a04ae50                display_options_get_banner
 .text.display_options
                0x000000004a04ae60       0x34 lib/built-in.o
                0x000000004a04ae60                display_options
 .text.print_size
                0x000000004a04ae94      0x100 lib/built-in.o
                0x000000004a04ae94                print_size
 .text.print_buffer
                0x000000004a04af94      0x1f8 lib/built-in.o
                0x000000004a04af94                print_buffer
 .text.crc32_no_comp
                0x000000004a04b18c       0xdc lib/built-in.o
                0x000000004a04b18c                crc32_no_comp
 .text.crc32    0x000000004a04b268       0x1c lib/built-in.o
                0x000000004a04b268                crc32
 .text.crc32_wd
                0x000000004a04b284        0x4 lib/built-in.o
                0x000000004a04b284                crc32_wd
 .text.crc32_wd_buf
                0x000000004a04b288       0x3c lib/built-in.o
                0x000000004a04b288                crc32_wd_buf
 .text.hang     0x000000004a04b2c4       0x20 lib/built-in.o
                0x000000004a04b2c4                hang
 .text.skip_spaces
                0x000000004a04b2e4       0x20 lib/built-in.o
                0x000000004a04b2e4                skip_spaces
 .text.strim    0x000000004a04b304       0x5c lib/built-in.o
                0x000000004a04b304                strim
 .text.emit     0x000000004a04b360       0x2c lib/built-in.o
 .text.store_char_in_data
                0x000000004a04b38c       0x30 lib/built-in.o
 .text.get_escape_char
                0x000000004a04b3bc       0x7c lib/built-in.o
 .text.relocate
                0x000000004a04b438       0x58 lib/built-in.o
 .text.match    0x000000004a04b490      0x40c lib/built-in.o
 .text.loop_greedy
                0x000000004a04b89c       0xb4 lib/built-in.o
 .text.loop_non_greedy
                0x000000004a04b950       0xa0 lib/built-in.o
 .text.quantifier
                0x000000004a04b9f0       0xc0 lib/built-in.o
 .text.fixup_branch
                0x000000004a04bab0       0x54 lib/built-in.o
 .text.compile  0x000000004a04bb04      0x388 lib/built-in.o
 .text.slre_compile
                0x000000004a04be8c       0xe4 lib/built-in.o
                0x000000004a04be8c                slre_compile
 .text.slre_match
                0x000000004a04bf70       0x98 lib/built-in.o
                0x000000004a04bf70                slre_match
 .text.strncasecmp
                0x000000004a04c008       0x88 lib/built-in.o
                0x000000004a04c008                strncasecmp
 .text.strcasecmp
                0x000000004a04c090        0x8 lib/built-in.o
                0x000000004a04c090                strcasecmp
 .text.strcpy   0x000000004a04c098       0x18 lib/built-in.o
                0x000000004a04c098                strcpy
 .text.strncpy  0x000000004a04c0b0       0x20 lib/built-in.o
                0x000000004a04c0b0                strncpy
 .text.strcat   0x000000004a04c0d0       0x2c lib/built-in.o
                0x000000004a04c0d0                strcat
 .text.strncat  0x000000004a04c0fc       0x3c lib/built-in.o
                0x000000004a04c0fc                strncat
 .text.strcmp   0x000000004a04c138       0x28 lib/built-in.o
                0x000000004a04c138                strcmp
 .text.strncmp  0x000000004a04c160       0x38 lib/built-in.o
                0x000000004a04c160                strncmp
 .text.strchr   0x000000004a04c198       0x28 lib/built-in.o
                0x000000004a04c198                strchr
 .text.strlen   0x000000004a04c1c0       0x1c lib/built-in.o
                0x000000004a04c1c0                strlen
 .text.strrchr  0x000000004a04c1dc       0x40 lib/built-in.o
                0x000000004a04c1dc                strrchr
 .text.strnlen  0x000000004a04c21c       0x28 lib/built-in.o
                0x000000004a04c21c                strnlen
 .text.strdup   0x000000004a04c244       0x4c lib/built-in.o
                0x000000004a04c244                strdup
 .text.strpbrk  0x000000004a04c290       0x34 lib/built-in.o
                0x000000004a04c290                strpbrk
 .text.strsep   0x000000004a04c2c4       0x40 lib/built-in.o
                0x000000004a04c2c4                strsep
 .text.memset   0x000000004a04c304       0x70 lib/built-in.o
                0x000000004a04c304                memset
 .text.memcpy   0x000000004a04c374       0x6c lib/built-in.o
                0x000000004a04c374                memcpy
 .text.strlcpy  0x000000004a04c3e0       0x50 lib/built-in.o
                0x000000004a04c3e0                strlcpy
 .text.memmove  0x000000004a04c430       0x4c lib/built-in.o
                0x000000004a04c430                memmove
 .text.memcmp   0x000000004a04c47c       0x30 lib/built-in.o
                0x000000004a04c47c                memcmp
 .text.memscan  0x000000004a04c4ac       0x24 lib/built-in.o
                0x000000004a04c4ac                memscan
 .text.strstr   0x000000004a04c4d0       0x68 lib/built-in.o
                0x000000004a04c4d0                strstr
 .text.memchr   0x000000004a04c538       0x30 lib/built-in.o
                0x000000004a04c538                memchr
 .text.timer_init
                0x000000004a04c568        0x8 lib/built-in.o
                0x000000004a04c568                timer_init
 .text.get_timer
                0x000000004a04c570       0x3c lib/built-in.o
                0x000000004a04c570                get_timer
 .text.timer_get_us
                0x000000004a04c5ac       0x38 lib/built-in.o
                0x000000004a04c5ac                timer_get_us
 .text.__udelay
                0x000000004a04c5e4       0x4c lib/built-in.o
                0x000000004a04c5e4                __udelay
 .text.udelay   0x000000004a04c630       0x44 lib/built-in.o
                0x000000004a04c630                udelay
 .text.uuid_str_valid
                0x000000004a04c674       0x88 lib/built-in.o
                0x000000004a04c674                uuid_str_valid
 .text.uuid_str_to_bin
                0x000000004a04c6fc      0x190 lib/built-in.o
                0x000000004a04c6fc                uuid_str_to_bin
 .text.uuid_bin_to_str
                0x000000004a04c88c       0xc8 lib/built-in.o
                0x000000004a04c88c                uuid_bin_to_str
 .text.gen_rand_uuid
                0x000000004a04c954       0x7c lib/built-in.o
                0x000000004a04c954                gen_rand_uuid
 .text.gen_rand_uuid_str
                0x000000004a04c9d0       0x38 lib/built-in.o
                0x000000004a04c9d0                gen_rand_uuid_str
 .text.rand_r   0x000000004a04ca08       0x1c lib/built-in.o
                0x000000004a04ca08                rand_r
 .text.rand     0x000000004a04ca24        0xc lib/built-in.o
                0x000000004a04ca24                rand
 .text.put_dec_trunc
                0x000000004a04ca30       0xd8 lib/built-in.o
 .text.put_dec  0x000000004a04cb08       0xd0 lib/built-in.o
 .text.number   0x000000004a04cbd8      0x2c0 lib/built-in.o
 .text.string   0x000000004a04ce98       0xd8 lib/built-in.o
 .text.vsnprintf_internal
                0x000000004a04cf70      0x9e8 lib/built-in.o
 .text.vscnprintf
                0x000000004a04d958       0x74 lib/built-in.o
                0x000000004a04d958                vscnprintf
 .text.snprintf
                0x000000004a04d9cc       0x7c lib/built-in.o
                0x000000004a04d9cc                snprintf
 .text.vsprintf
                0x000000004a04da48       0x44 lib/built-in.o
                0x000000004a04da48                vsprintf
 .text.sprintf  0x000000004a04da8c       0x74 lib/built-in.o
                0x000000004a04da8c                sprintf
 .text.printf   0x000000004a04db00       0xcc lib/built-in.o
                0x000000004a04db00                printf
 .text.vprintf  0x000000004a04dbcc       0x54 lib/built-in.o
                0x000000004a04dbcc                vprintf
 .text.simple_itoa
                0x000000004a04dc20       0x40 lib/built-in.o
                0x000000004a04dc20                simple_itoa
 .text.panic_finish
                0x000000004a04dc60       0x34 lib/built-in.o
 .text.panic_str
                0x000000004a04dc94       0x10 lib/built-in.o
                0x000000004a04dc94                panic_str
 .text.panic    0x000000004a04dca4       0x74 lib/built-in.o
                0x000000004a04dca4                panic
 .text._parse_integer_fixup_radix
                0x000000004a04dd18       0xb8 lib/built-in.o
 .text.simple_strtoul
                0x000000004a04ddd0       0x8c lib/built-in.o
                0x000000004a04ddd0                simple_strtoul
 .text.strict_strtoul
                0x000000004a04de5c       0x84 lib/built-in.o
                0x000000004a04de5c                strict_strtoul
 .text.simple_strtol
                0x000000004a04dee0       0x2c lib/built-in.o
                0x000000004a04dee0                simple_strtol
 .text.ustrtoul
                0x000000004a04df0c       0x7c lib/built-in.o
                0x000000004a04df0c                ustrtoul
 .text.simple_strtoull
                0x000000004a04df88       0x8c lib/built-in.o
                0x000000004a04df88                simple_strtoull
 .text.ustrtoull
                0x000000004a04e014       0x7c lib/built-in.o
                0x000000004a04e014                ustrtoull
 .text.trailing_strtoln
                0x000000004a04e090       0x78 lib/built-in.o
                0x000000004a04e090                trailing_strtoln
 .text.trailing_strtol
                0x000000004a04e108        0x8 lib/built-in.o
                0x000000004a04e108                trailing_strtol
 .text.compute_ip_checksum
                0x000000004a04e110       0x80 net/built-in.o
                0x000000004a04e110                compute_ip_checksum
 .text.ip_checksum_ok
                0x000000004a04e190       0x1c net/built-in.o
                0x000000004a04e190                ip_checksum_ok
 .text.arp_init
                0x000000004a04e1ac       0x3c net/built-in.o
                0x000000004a04e1ac                arp_init
 .text.arp_raw_request
                0x000000004a04e1e8       0xec net/built-in.o
                0x000000004a04e1e8                arp_raw_request
 .text.arp_request
                0x000000004a04e2d4       0x84 net/built-in.o
                0x000000004a04e2d4                arp_request
 .text.arp_timeout_check
                0x000000004a04e358       0x90 net/built-in.o
                0x000000004a04e358                arp_timeout_check
 .text.arp_receive
                0x000000004a04e3e8      0x228 net/built-in.o
                0x000000004a04e3e8                arp_receive
 .text.dhcp_extended
                0x000000004a04e610      0x268 net/built-in.o
 .text.dhcp_process_options
                0x000000004a04e878      0x220 net/built-in.o
 .text.dhcp_packet_process_options
                0x000000004a04ea98       0x88 net/built-in.o
 .text.dhcp_handler
                0x000000004a04eb20      0x3cc net/built-in.o
 .text.bootp_reset
                0x000000004a04eeec       0x3c net/built-in.o
                0x000000004a04eeec                bootp_reset
 .text.bootp_request
                0x000000004a04ef28      0x278 net/built-in.o
                0x000000004a04ef28                bootp_request
 .text.bootp_timeout_handler
                0x000000004a04f1a0       0x68 net/built-in.o
 .text.dhcp_request
                0x000000004a04f208        0x4 net/built-in.o
                0x000000004a04f208                dhcp_request
 .text.eth_get_uclass_priv
                0x000000004a04f20c       0x24 net/built-in.o
 .text.eth_pre_remove
                0x000000004a04f230       0x40 net/built-in.o
 .text.eth_post_probe
                0x000000004a04f270      0x1a8 net/built-in.o
 .text.eth_write_hwaddr
                0x000000004a04f418       0xe4 net/built-in.o
 .text.on_ethaddr
                0x000000004a04f4fc       0x90 net/built-in.o
 .text.eth_post_bind
                0x000000004a04f58c       0x48 net/built-in.o
 .text.eth_set_current_to_next
                0x000000004a04f5d4       0x48 net/built-in.o
                0x000000004a04f5d4                eth_set_current_to_next
 .text.eth_get_dev
                0x000000004a04f61c       0x40 net/built-in.o
                0x000000004a04f61c                eth_get_dev
 .text.eth_set_dev
                0x000000004a04f65c       0x44 net/built-in.o
                0x000000004a04f65c                eth_set_dev
 .text.eth_pre_unbind
                0x000000004a04f6a0       0x38 net/built-in.o
 .text.eth_get_dev_by_name
                0x000000004a04f6d8       0xf8 net/built-in.o
                0x000000004a04f6d8                eth_get_dev_by_name
 .text.eth_get_ethaddr
                0x000000004a04f7d0       0x2c net/built-in.o
                0x000000004a04f7d0                eth_get_ethaddr
 .text.eth_halt_state_only
                0x000000004a04f7fc       0x2c net/built-in.o
                0x000000004a04f7fc                eth_halt_state_only
 .text.eth_get_dev_index
                0x000000004a04f828       0x28 net/built-in.o
                0x000000004a04f828                eth_get_dev_index
 .text.eth_init
                0x000000004a04f850       0xfc net/built-in.o
                0x000000004a04f850                eth_init
 .text.eth_halt
                0x000000004a04f94c       0x48 net/built-in.o
                0x000000004a04f94c                eth_halt
 .text.eth_send
                0x000000004a04f994       0x5c net/built-in.o
                0x000000004a04f994                eth_send
 .text.eth_rx   0x000000004a04f9f0       0xbc net/built-in.o
                0x000000004a04f9f0                eth_rx
 .text.eth_initialize
                0x000000004a04faac      0x118 net/built-in.o
                0x000000004a04faac                eth_initialize
 .text.eth_parse_enetaddr
                0x000000004a04fbc4       0x6c net/built-in.o
                0x000000004a04fbc4                eth_parse_enetaddr
 .text.eth_env_get_enetaddr
                0x000000004a04fc30       0x68 net/built-in.o
                0x000000004a04fc30                eth_env_get_enetaddr
 .text.eth_env_set_enetaddr
                0x000000004a04fc98       0x54 net/built-in.o
                0x000000004a04fc98                eth_env_set_enetaddr
 .text.eth_env_get_enetaddr_by_index
                0x000000004a04fcec       0x50 net/built-in.o
                0x000000004a04fcec                eth_env_get_enetaddr_by_index
 .text.eth_env_set_enetaddr_by_index
                0x000000004a04fd3c       0x50 net/built-in.o
                0x000000004a04fd3c                eth_env_set_enetaddr_by_index
 .text.eth_common_init
                0x000000004a04fd8c       0x1c net/built-in.o
                0x000000004a04fd8c                eth_common_init
 .text.eth_mac_skip
                0x000000004a04fda8       0x44 net/built-in.o
                0x000000004a04fda8                eth_mac_skip
 .text.eth_get_name
                0x000000004a04fdec       0x2c net/built-in.o
                0x000000004a04fdec                eth_get_name
 .text.eth_current_changed
                0x000000004a04fe18       0x90 net/built-in.o
                0x000000004a04fe18                eth_current_changed
 .text.eth_try_another
                0x000000004a04fea8       0x80 net/built-in.o
                0x000000004a04fea8                eth_try_another
 .text.eth_set_current
                0x000000004a04ff28       0x8c net/built-in.o
                0x000000004a04ff28                eth_set_current
 .text.net_clear_handlers
                0x000000004a04ffb4       0x24 net/built-in.o
 .text.start_again_timeout_handler
                0x000000004a04ffd8       0x10 net/built-in.o
 .text.dummy_handler
                0x000000004a04ffe8        0x4 net/built-in.o
 .text.on_ipaddr
                0x000000004a04ffec       0x30 net/built-in.o
 .text.on_gatewayip
                0x000000004a05001c       0x30 net/built-in.o
 .text.on_netmask
                0x000000004a05004c       0x30 net/built-in.o
 .text.on_serverip
                0x000000004a05007c       0x30 net/built-in.o
 .text.net_init_loop
                0x000000004a0500ac       0x34 net/built-in.o
 .text.net_auto_load
                0x000000004a0500e0       0x6c net/built-in.o
                0x000000004a0500e0                net_auto_load
 .text.net_init
                0x000000004a05014c       0x74 net/built-in.o
                0x000000004a05014c                net_init
 .text.net_start_again
                0x000000004a0501c0      0x148 net/built-in.o
                0x000000004a0501c0                net_start_again
 .text.net_loop
                0x000000004a050308      0x320 net/built-in.o
                0x000000004a050308                net_loop
 .text.net_set_udp_handler
                0x000000004a050628       0x18 net/built-in.o
                0x000000004a050628                net_set_udp_handler
 .text.net_get_arp_handler
                0x000000004a050640        0xc net/built-in.o
                0x000000004a050640                net_get_arp_handler
 .text.net_set_timeout_handler
                0x000000004a05064c       0x54 net/built-in.o
                0x000000004a05064c                net_set_timeout_handler
 .text.net_process_received_packet
                0x000000004a0506a0      0x2e4 net/built-in.o
                0x000000004a0506a0                net_process_received_packet
 .text.net_eth_hdr_size
                0x000000004a050984       0x3c net/built-in.o
                0x000000004a050984                net_eth_hdr_size
 .text.net_set_ether
                0x000000004a0509c0       0xcc net/built-in.o
                0x000000004a0509c0                net_set_ether
 .text.net_update_ether
                0x000000004a050a8c       0xb0 net/built-in.o
                0x000000004a050a8c                net_update_ether
 .text.net_set_ip_header
                0x000000004a050b3c       0xa0 net/built-in.o
                0x000000004a050b3c                net_set_ip_header
 .text.net_set_udp_header
                0x000000004a050bdc       0xc0 net/built-in.o
                0x000000004a050bdc                net_set_udp_header
 .text.net_send_udp_packet
                0x000000004a050c9c      0x118 net/built-in.o
                0x000000004a050c9c                net_send_udp_packet
 .text.copy_filename
                0x000000004a050db4       0x44 net/built-in.o
                0x000000004a050db4                copy_filename
 .text.on_bootfile
                0x000000004a050df8       0x3c net/built-in.o
 .text.ip_to_string
                0x000000004a050e34       0x28 net/built-in.o
                0x000000004a050e34                ip_to_string
 .text.string_to_vlan
                0x000000004a050e5c       0x58 net/built-in.o
                0x000000004a050e5c                string_to_vlan
 .text.on_nvlan
                0x000000004a050eb4       0x30 net/built-in.o
 .text.on_vlan  0x000000004a050ee4       0x30 net/built-in.o
 .text.rpc_lookup_reply
                0x000000004a050f14       0xc0 net/built-in.o
 .text.nfs_mount_reply
                0x000000004a050fd4       0xa0 net/built-in.o
 .text.nfs_umountall_reply
                0x000000004a051074       0x90 net/built-in.o
 .text.nfs_lookup_reply
                0x000000004a051104      0x114 net/built-in.o
 .text.nfs3_get_attributes_offset
                0x000000004a051218       0x14 net/built-in.o
 .text.nfs_readlink_reply
                0x000000004a05122c      0x140 net/built-in.o
 .text.basename
                0x000000004a05136c       0x48 net/built-in.o
 .text.rpc_req  0x000000004a0513b4      0x124 net/built-in.o
 .text.nfs_umountall_req
                0x000000004a0514d8       0x70 net/built-in.o
 .text.nfs_read_reply.isra.0
                0x000000004a051548      0x168 net/built-in.o
 .text.nfs_mount_req
                0x000000004a0516b0       0xb8 net/built-in.o
 .text.nfs_readlink_req
                0x000000004a051768       0xc8 net/built-in.o
 .text.nfs_lookup_req
                0x000000004a051830      0x14c net/built-in.o
 .text.nfs_read_req
                0x000000004a05197c       0xf0 net/built-in.o
 .text.nfs_send
                0x000000004a051a6c      0x100 net/built-in.o
 .text.nfs_handler
                0x000000004a051b6c      0x234 net/built-in.o
 .text.nfs_timeout_handler
                0x000000004a051da0       0x70 net/built-in.o
 .text.nfs_start
                0x000000004a051e10      0x144 net/built-in.o
                0x000000004a051e10                nfs_start
 .text.ping_timeout_handler
                0x000000004a051f54       0x20 net/built-in.o
 .text.ping_start
                0x000000004a051f74      0x13c net/built-in.o
                0x000000004a051f74                ping_start
 .text.ping_receive
                0x000000004a0520b0      0x110 net/built-in.o
                0x000000004a0520b0                ping_receive
 .text.tftp_send
                0x000000004a0521c0      0x1a8 net/built-in.o
 .text.tftp_handler
                0x000000004a052368      0x384 net/built-in.o
 .text.tftp_timeout_handler
                0x000000004a0526ec       0x84 net/built-in.o
 .text.tftp_start
                0x000000004a052770      0x330 net/built-in.o
                0x000000004a052770                tftp_start
 .text.do_dm_dump_devres
                0x000000004a052aa0        0x8 test/dm/built-in.o
 .text.do_dm    0x000000004a052aa8       0x94 test/dm/built-in.o
 .text.do_dm_dump_uclass
                0x000000004a052b3c       0x18 test/dm/built-in.o
 .text.do_dm_dump_all
                0x000000004a052b54       0x18 test/dm/built-in.o
                0x000000004a052b70                . = ALIGN (0x8)

.rodata         0x000000004a052b70    0x13459
 *(SORT(.rodata*))
 .rodata        0x000000004a052b70       0x2d cmd/built-in.o
 *fill*         0x000000004a052b9d        0x3 
 .rodata        0x000000004a052ba0       0x10 disk/built-in.o
 .rodata        0x000000004a052bb0       0x20 lib/built-in.o
 .rodata.CSWTCH.105
                0x000000004a052bd0       0xd8 common/built-in.o
 .rodata.CSWTCH.24
                0x000000004a052ca8       0x40 common/built-in.o
 .rodata.CSWTCH.25
                0x000000004a052ce8       0x28 cmd/built-in.o
 .rodata.CSWTCH.45
                0x000000004a052d10       0x40 disk/built-in.o
 .rodata.CSWTCH.49
                0x000000004a052d50       0x16 common/built-in.o
 *fill*         0x000000004a052d66        0x2 
 .rodata.END    0x000000004a052d68        0x4 lib/built-in.o
 *fill*         0x000000004a052d6c        0x4 
 .rodata.ROOT   0x000000004a052d70       0x14 lib/built-in.o
 *fill*         0x000000004a052d84        0x4 
 .rodata.__FUNCTION__.7575
                0x000000004a052d88       0x17 common/built-in.o
 *fill*         0x000000004a052d9f        0x1 
 .rodata.__FUNCTION__.7720
                0x000000004a052da0       0x17 common/built-in.o
 *fill*         0x000000004a052db7        0x1 
 .rodata.__func__.6649
                0x000000004a052db8        0xb fs/built-in.o
 *fill*         0x000000004a052dc3        0x5 
 .rodata.__func__.6780
                0x000000004a052dc8        0xe common/built-in.o
 *fill*         0x000000004a052dd6        0x2 
 .rodata.__func__.6948
                0x000000004a052dd8        0x8 lib/built-in.o
 .rodata.__func__.7034
                0x000000004a052de0        0x7 cmd/built-in.o
 *fill*         0x000000004a052de7        0x1 
 .rodata.__func__.7422
                0x000000004a052de8        0xe disk/built-in.o
 *fill*         0x000000004a052df6        0x2 
 .rodata.__func__.7432
                0x000000004a052df8        0xf disk/built-in.o
 *fill*         0x000000004a052e07        0x1 
 .rodata.__func__.7444
                0x000000004a052e08       0x12 disk/built-in.o
 *fill*         0x000000004a052e1a        0x6 
 .rodata.__func__.7452
                0x000000004a052e20       0x18 common/built-in.o
 .rodata.__func__.7455
                0x000000004a052e38       0x13 disk/built-in.o
 *fill*         0x000000004a052e4b        0x5 
 .rodata.__func__.7518
                0x000000004a052e50        0xc disk/built-in.o
 *fill*         0x000000004a052e5c        0x4 
 .rodata.__func__.7536
                0x000000004a052e60       0x13 disk/built-in.o
 *fill*         0x000000004a052e73        0x5 
 .rodata.__func__.7586
                0x000000004a052e78        0xd disk/built-in.o
 *fill*         0x000000004a052e85        0x3 
 .rodata.__func__.7598
                0x000000004a052e88       0x17 disk/built-in.o
 *fill*         0x000000004a052e9f        0x1 
 .rodata.__func__.7603
                0x000000004a052ea0        0xd disk/built-in.o
 *fill*         0x000000004a052ead        0x3 
 .rodata.__func__.7641
                0x000000004a052eb0        0xc lib/built-in.o
 *fill*         0x000000004a052ebc        0x4 
 .rodata.__func__.8107
                0x000000004a052ec0        0xe drivers/built-in.o
 *fill*         0x000000004a052ece        0x2 
 .rodata.__func__.8499
                0x000000004a052ed0        0xd drivers/built-in.o
 *fill*         0x000000004a052edd        0x3 
 .rodata.__func__.8505
                0x000000004a052ee0       0x11 drivers/built-in.o
 *fill*         0x000000004a052ef1        0x7 
 .rodata.__func__.8509
                0x000000004a052ef8       0x18 drivers/built-in.o
 .rodata.__func__.8513
                0x000000004a052f10       0x18 drivers/built-in.o
 .rodata.__func__.8517
                0x000000004a052f28        0xd drivers/built-in.o
 *fill*         0x000000004a052f35        0x3 
 .rodata.__func__.8521
                0x000000004a052f38       0x14 drivers/built-in.o
 *fill*         0x000000004a052f4c        0x4 
 .rodata.__func__.8525
                0x000000004a052f50       0x14 drivers/built-in.o
 *fill*         0x000000004a052f64        0x4 
 .rodata.__func__.8838
                0x000000004a052f68        0x9 drivers/built-in.o
 *fill*         0x000000004a052f71        0x7 
 .rodata.__func__.9087
                0x000000004a052f78        0xf common/built-in.o
 *fill*         0x000000004a052f87        0x1 
 .rodata.__func__.9230
                0x000000004a052f88       0x15 common/built-in.o
 *fill*         0x000000004a052f9d        0x3 
 .rodata.__func__.9269
                0x000000004a052fa0       0x15 drivers/net/built-in.o
 *fill*         0x000000004a052fb5        0x3 
 .rodata.__func__.9412
                0x000000004a052fb8       0x22 drivers/net/built-in.o
 *fill*         0x000000004a052fda        0x6 
 .rodata.__func__.9512
                0x000000004a052fe0       0x17 drivers/usb/host/built-in.o
 *fill*         0x000000004a052ff7        0x1 
 .rodata._ctype
                0x000000004a052ff8      0x100 lib/built-in.o
                0x000000004a052ff8                _ctype
 .rodata.boot_os
                0x000000004a0530f8       0xc0 common/built-in.o
 .rodata.cc_to_error
                0x000000004a0531b8       0x40 drivers/usb/host/built-in.o
 .rodata.cc_to_string
                0x000000004a0531f8       0x80 drivers/usb/host/built-in.o
 .rodata.color  0x000000004a053278       0x40 lib/built-in.o
 .rodata.colors
                0x000000004a0532b8       0x60 drivers/built-in.o
 .rodata.crc16_tab
                0x000000004a053318      0x200 lib/built-in.o
 .rodata.crc_table
                0x000000004a053518      0x400 lib/built-in.o
 .rodata.dbase.6977
                0x000000004a053918       0x40 lib/built-in.o
 .rodata.default_environment
                0x000000004a053958     0x114f env/built-in.o
                0x000000004a053958                default_environment
 *fill*         0x000000004a054aa7        0x1 
 .rodata.desc_and_len_tbl
                0x000000004a054aa8       0x60 cmd/built-in.o
 .rodata.dext.6978
                0x000000004a054b08       0x40 lib/built-in.o
 .rodata.digits.6643
                0x000000004a054b48       0x10 lib/built-in.o
 .rodata.distfix
                0x000000004a054b58       0x80 lib/built-in.o
 .rodata.efi_block_io_guid
                0x000000004a054bd8       0x10 lib/built-in.o
 .rodata.efi_boot_services
                0x000000004a054be8      0x178 lib/built-in.o
 .rodata.efi_con_out
                0x000000004a054d60       0x50 lib/built-in.o
                0x000000004a054d60                efi_con_out
 .rodata.efi_console_control
                0x000000004a054db0       0x18 lib/built-in.o
                0x000000004a054db0                efi_console_control
 .rodata.efi_device_path_to_text
                0x000000004a054dc8       0x10 lib/built-in.o
                0x000000004a054dc8                efi_device_path_to_text
 .rodata.efi_file_handle_protocol
                0x000000004a054dd8       0x58 lib/built-in.o
 .rodata.efi_file_info_guid
                0x000000004a054e30       0x10 lib/built-in.o
                0x000000004a054e30                efi_file_info_guid
 .rodata.efi_global_variable_guid
                0x000000004a054e40       0x10 lib/built-in.o
                0x000000004a054e40                efi_global_variable_guid
 .rodata.efi_gop_guid
                0x000000004a054e50       0x10 lib/built-in.o
 .rodata.efi_guid_console_control
                0x000000004a054e60       0x10 lib/built-in.o
                0x000000004a054e60                efi_guid_console_control
 .rodata.efi_guid_device_path
                0x000000004a054e70       0x10 lib/built-in.o
                0x000000004a054e70                efi_guid_device_path
 .rodata.efi_guid_device_path_to_text_protocol
                0x000000004a054e80       0x10 lib/built-in.o
                0x000000004a054e80                efi_guid_device_path_to_text_protocol
 .rodata.efi_guid_loaded_image
                0x000000004a054e90       0x10 lib/built-in.o
                0x000000004a054e90                efi_guid_loaded_image
 .rodata.efi_net_guid
                0x000000004a054ea0       0x10 lib/built-in.o
 .rodata.efi_pxe_guid
                0x000000004a054eb0       0x10 lib/built-in.o
 .rodata.efi_runtime_detach_list
                0x000000004a054ec0       0xa0 lib/built-in.o
 .rodata.efi_simple_file_system_protocol_guid
                0x000000004a054f60       0x10 lib/built-in.o
                0x000000004a054f60                efi_simple_file_system_protocol_guid
 .rodata.ehci_usb_ids
                0x000000004a054f70       0xa0 drivers/usb/host/built-in.o
 .rodata.env_flags_varaccess_mask
                0x000000004a055010       0x10 env/built-in.o
 .rodata.env_flags_varaccess_rep
                0x000000004a055020        0x5 env/built-in.o
 *fill*         0x000000004a055025        0x3 
 .rodata.env_flags_vartype_rep
                0x000000004a055028        0x7 env/built-in.o
 *fill*         0x000000004a05502f        0x1 
 .rodata.erase_seq
                0x000000004a055030        0x4 common/built-in.o
 *fill*         0x000000004a055034        0x4 
 .rodata.ext_csd_bits.8804
                0x000000004a055038       0x14 drivers/built-in.o
 *fill*         0x000000004a05504c        0x4 
 .rodata.ext_to_hostcaps.8805
                0x000000004a055050       0x1c drivers/built-in.o
 *fill*         0x000000004a05506c        0x4 
 .rodata.fbase  0x000000004a055070       0x10 drivers/built-in.o
 .rodata.fdt_errtable
                0x000000004a055080       0x90 lib/built-in.o
 .rodata.generic_simple_bus_ids
                0x000000004a055110       0x30 drivers/built-in.o
 .rodata.gpio_function
                0x000000004a055140       0x28 drivers/gpio/built-in.o
 .rodata.gpio_sunxi_ops
                0x000000004a055168       0x50 drivers/gpio/built-in.o
 .rodata.hex_asc
                0x000000004a0551b8       0x11 lib/built-in.o
 *fill*         0x000000004a0551c9        0x7 
 .rodata.hexchars.7526
                0x000000004a0551d0       0x11 lib/built-in.o
 *fill*         0x000000004a0551e1        0x7 
 .rodata.hub_id_table
                0x000000004a0551e8       0x40 common/built-in.o
 .rodata.init_sequence_f
                0x000000004a055228      0x148 common/built-in.o
 .rodata.kbd_id_table
                0x000000004a055370       0x40 common/built-in.o
 .rodata.keywords
                0x000000004a0553b0      0x130 cmd/built-in.o
 .rodata.lbase.6975
                0x000000004a0554e0       0x3e lib/built-in.o
 *fill*         0x000000004a05551e        0x2 
 .rodata.lenfix
                0x000000004a055520      0x800 lib/built-in.o
 .rodata.lext.6976
                0x000000004a055d20       0x3e lib/built-in.o
 *fill*         0x000000004a055d5e        0x2 
 .rodata.mass_storage_id_table
                0x000000004a055d60       0x40 common/built-in.o
 .rodata.multipliers
                0x000000004a055da0       0x10 drivers/built-in.o
 .rodata.n_cts_table
                0x000000004a055db0       0xc0 drivers/built-in.o
 .rodata.names.6866
                0x000000004a055e70        0x6 lib/built-in.o
 *fill*         0x000000004a055e76        0x2 
 .rodata.net_bcast_ethaddr
                0x000000004a055e78        0x6 net/built-in.o
                0x000000004a055e78                net_bcast_ethaddr
 *fill*         0x000000004a055e7e        0x2 
 .rodata.ns16550_serial_ids
                0x000000004a055e80       0xc0 drivers/serial/built-in.o
 .rodata.ns16550_serial_ops
                0x000000004a055f40       0x28 drivers/serial/built-in.o
                0x000000004a055f40                ns16550_serial_ops
 .rodata.ohci_usb_ids
                0x000000004a055f68       0xa0 drivers/usb/host/built-in.o
 .rodata.op_adv
                0x000000004a056008      0x180 cmd/built-in.o
                0x000000004a056008                op_adv
 .rodata.op_table
                0x000000004a056188       0xd0 cmd/built-in.o
 .rodata.order.7071
                0x000000004a056258       0x26 lib/built-in.o
 *fill*         0x000000004a05627e        0x2 
 .rodata.phy_interface_strings
                0x000000004a056280       0x88 drivers/net/phy/built-in.o
 .rodata.reg_0_5_desc_tbl
                0x000000004a056308       0x60 cmd/built-in.o
 .rodata.reg_0_desc_tbl
                0x000000004a056368       0xa0 cmd/built-in.o
 .rodata.reg_1_desc_tbl
                0x000000004a056408      0x100 cmd/built-in.o
 .rodata.reg_2_desc_tbl
                0x000000004a056508       0x10 cmd/built-in.o
 .rodata.reg_3_desc_tbl
                0x000000004a056518       0x30 cmd/built-in.o
 .rodata.reg_4_desc_tbl
                0x000000004a056548       0xc0 cmd/built-in.o
 .rodata.reg_5_desc_tbl
                0x000000004a056608       0xc0 cmd/built-in.o
 .rodata.root_info
                0x000000004a0566c8       0x10 drivers/built-in.o
 .rodata.sd_au_size
                0x000000004a0566d8       0x40 drivers/built-in.o
 .rodata.sha1_padding
                0x000000004a056718       0x40 lib/built-in.o
 .rodata.simple_panel_ids
                0x000000004a056758       0x50 drivers/built-in.o
 .rodata.simple_panel_ops
                0x000000004a0567a8        0x8 drivers/built-in.o
 .rodata.smbios_guid
                0x000000004a0567b0       0x10 lib/built-in.o
 .rodata.smbios_write_funcs
                0x000000004a0567c0       0x38 lib/built-in.o
 .rodata.soc_data_a_all
                0x000000004a0567f8        0x8 drivers/gpio/built-in.o
 .rodata.soc_data_l_1
                0x000000004a056800        0x8 drivers/gpio/built-in.o
 .rodata.soc_data_l_2
                0x000000004a056808        0x8 drivers/gpio/built-in.o
 .rodata.soc_data_l_3
                0x000000004a056810        0x8 drivers/gpio/built-in.o
 .rodata.sun8i_emac_eth_ids
                0x000000004a056818       0x40 drivers/net/built-in.o
 .rodata.sun8i_emac_eth_ops
                0x000000004a056858       0x38 drivers/net/built-in.o
 .rodata.sunxi_de2_ops
                0x000000004a056890        0x0 drivers/built-in.o
 .rodata.sunxi_dw_hdmi_ops
                0x000000004a056890       0x18 drivers/built-in.o
 .rodata.sunxi_gpio_ids
                0x000000004a0568a8      0x120 drivers/gpio/built-in.o
 .rodata.sunxi_lcd_ops
                0x000000004a0569c8       0x18 drivers/built-in.o
 .rodata.sunxi_mmc_ops
                0x000000004a0569e0       0x28 drivers/built-in.o
 .rodata.tab_seq
                0x000000004a056a08        0x9 common/built-in.o
 *fill*         0x000000004a056a11        0x7 
 .rodata.uimage_arch
                0x000000004a056a18      0x270 common/built-in.o
 .rodata.uimage_comp
                0x000000004a056c88       0xa8 common/built-in.o
 .rodata.uimage_os
                0x000000004a056d30       0xf0 common/built-in.o
 .rodata.uimage_type
                0x000000004a056e20      0x318 common/built-in.o
 .rodata.us_direction
                0x000000004a057138       0x20 common/built-in.o
 .rodata.usb_hub_ids
                0x000000004a057158       0x20 common/built-in.o
 .rodata.usb_kbd_arrow
                0x000000004a057178        0x4 common/built-in.o
 *fill*         0x000000004a05717c        0x4 
 .rodata.usb_kbd_ids
                0x000000004a057180       0x20 common/built-in.o
 .rodata.usb_kbd_num_keypad
                0x000000004a0571a0       0x14 common/built-in.o
 *fill*         0x000000004a0571b4        0x4 
 .rodata.usb_kbd_numkey
                0x000000004a0571b8       0x1b common/built-in.o
 *fill*         0x000000004a0571d3        0x5 
 .rodata.usb_kbd_numkey_shifted
                0x000000004a0571d8       0x1b common/built-in.o
 *fill*         0x000000004a0571f3        0x5 
 .rodata.usb_mass_storage_ids
                0x000000004a0571f8       0x20 common/built-in.o
 .rodata.version_string
                0x000000004a057218       0x43 cmd/built-in.o
                0x000000004a057218                version_string
 *fill*         0x000000004a05725b        0x5 
 .rodata.video_fontdata
                0x000000004a057260     0x1000 drivers/built-in.o
 .rodata.widths.8806
                0x000000004a058260       0x14 drivers/built-in.o
 .rodata.binary_test
                0x000000004a058274        0xe cmd/built-in.o
 *fill*         0x000000004a058282        0x2 
 .rodata.blk_common_cmd
                0x000000004a058284        0x4 cmd/built-in.o
 .rodata.cli_readline_into_buffer
                0x000000004a058288       0x40 common/built-in.o
 .rodata.dev_print
                0x000000004a0582c8       0x14 disk/built-in.o
 .rodata.do_fdt
                0x000000004a0582dc       0x12 cmd/built-in.o
 *fill*         0x000000004a0582ee        0x2 
 .rodata.do_itest
                0x000000004a0582f0        0x7 cmd/built-in.o
 *fill*         0x000000004a0582f7        0x1 
 .rodata.do_test
                0x000000004a0582f8        0xd cmd/built-in.o
 *fill*         0x000000004a058305        0x3 
 .rodata.efi_convert_device_node_to_text.isra.1
                0x000000004a058308        0x8 lib/built-in.o
 .rodata.efi_cout_output_string
                0x000000004a058310        0x6 lib/built-in.o
 *fill*         0x000000004a058316        0x2 
 .rodata.efi_load_pe
                0x000000004a058318        0xf lib/built-in.o
 *fill*         0x000000004a058327        0x1 
 .rodata.env_flags_validate
                0x000000004a058328        0x6 env/built-in.o
 *fill*         0x000000004a05832e        0x2 
 .rodata.fdt_next_tag
                0x000000004a058330        0x9 lib/built-in.o
 *fill*         0x000000004a058339        0x3 
 .rodata.file_fat_detectfs
                0x000000004a05833c        0x8 fs/built-in.o
 .rodata.inflate
                0x000000004a058344       0x3a lib/built-in.o
 *fill*         0x000000004a05837e        0x2 
 .rodata.load_serial
                0x000000004a058380        0x9 cmd/built-in.o
 *fill*         0x000000004a058389        0x3 
 .rodata.match  0x000000004a05838c       0x22 lib/built-in.o
 *fill*         0x000000004a0583ae        0x2 
 .rodata.mmc_set_capacity
                0x000000004a0583b0        0x8 drivers/built-in.o
 .rodata.mmc_startup
                0x000000004a0583b8       0x18 drivers/built-in.o
 .rodata.net_loop
                0x000000004a0583d0       0x24 net/built-in.o
 .rodata.nfs_handler
                0x000000004a0583f4        0x7 net/built-in.o
 *fill*         0x000000004a0583fb        0x1 
 .rodata.nfs_send
                0x000000004a0583fc        0x7 net/built-in.o
 *fill*         0x000000004a058403        0x1 
 .rodata.ohci_submit_control_msg
                0x000000004a058404       0x1c drivers/usb/host/built-in.o
 .rodata.parse_pxefile_top
                0x000000004a058420       0x37 cmd/built-in.o
 *fill*         0x000000004a058457        0x1 
 .rodata.part_get_info_iso_verb
                0x000000004a058458        0x5 disk/built-in.o
 *fill*         0x000000004a05845d        0x3 
 .rodata.part_print
                0x000000004a058460        0xb disk/built-in.o
 *fill*         0x000000004a05846b        0x1 
 .rodata.srec_decode
                0x000000004a05846c        0xa common/built-in.o
 *fill*         0x000000004a058476        0x2 
 .rodata.sunxi_get_boot_device
                0x000000004a058478        0x4 arch/arm/mach-sunxi/built-in.o
 .rodata.sunxi_mmc_getcd_gpio
                0x000000004a05847c        0x4 drivers/built-in.o
 .rodata.sunxi_mmc_init
                0x000000004a058480        0x4 drivers/built-in.o
 .rodata.tftp_send
                0x000000004a058484        0x7 net/built-in.o
 *fill*         0x000000004a05848b        0x1 
 .rodata.usb_display_class_sub
                0x000000004a05848c        0x6 cmd/built-in.o
 .rodata.efi_bootmgr_load.str2.2
                0x000000004a058492       0x48 lib/built-in.o
 .rodata.vsnprintf_internal.str2.2
                0x000000004a0584da        0xe lib/built-in.o
 .rodata        0x000000004a0584e8        0x9 common/built-in.o
 .rodata        0x000000004a0584f1       0x3f drivers/usb/host/built-in.o
 .rodata        0x000000004a058530      0x103 env/built-in.o
 .rodata        0x000000004a058633        0x7 net/built-in.o
 .rodata._do_env_set.isra.0.str1.1
                0x000000004a05863a       0x7c cmd/built-in.o
 .rodata._do_help.str1.1
                0x000000004a0586b6       0x5f common/built-in.o
 .rodata._ehci_create_int_queue.isra.5.str1.1
                0x000000004a058715       0x3d drivers/usb/host/built-in.o
 .rodata._ehci_destroy_int_queue.str1.1
                0x000000004a058752       0x2d drivers/usb/host/built-in.o
 .rodata.announce_dram_init.str1.1
                0x000000004a05877f        0x8 common/built-in.o
 .rodata.arp_receive.str1.1
                0x000000004a058787       0x14 net/built-in.o
 .rodata.arp_request.str1.1
                0x000000004a05879b       0x2a net/built-in.o
 .rodata.arp_timeout_check.str1.1
                0x000000004a0587c5       0x2b net/built-in.o
 .rodata.autoboot_command.str1.1
                0x000000004a0587f0       0x31 common/built-in.o
 .rodata.b_addqchr.str1.1
                0x000000004a058821        0x5 common/built-in.o
 .rodata.binary_test.str1.1
                0x000000004a058826       0x17 cmd/built-in.o
 .rodata.blk_common_cmd.str1.1
                0x000000004a05883d       0xed cmd/built-in.o
                                        0x101 (size before relaxing)
 .rodata.blk_get_device_by_str.str1.1
                0x000000004a05892a       0x6a disk/built-in.o
 .rodata.blk_get_device_part_str.str1.1
                0x000000004a058994      0x107 disk/built-in.o
                                        0x109 (size before relaxing)
 .rodata.blk_list_devices.str1.1
                0x000000004a058a9b       0x2d drivers/built-in.o
                                          0xc (size before relaxing)
 .rodata.blk_print_device_num.str1.1
                0x000000004a058a9b       0x10 drivers/built-in.o
 .rodata.blk_show_device.str1.1
                0x000000004a058aab       0x1d drivers/built-in.o
 .rodata.board_init.str1.1
                0x000000004a058ac8        0xf board/sunxi/built-in.o
                                         0x10 (size before relaxing)
 .rodata.boot_fdt_add_mem_rsv_regions.str1.1
                0x000000004a058ad7       0x35 common/built-in.o
 .rodata.boot_get_fdt.str1.1
                0x000000004a058b0c      0x1b5 common/built-in.o
                                        0x1d4 (size before relaxing)
 .rodata.boot_get_fdt_fit.str1.1
                0x000000004a058cc1       0x3b common/built-in.o
 .rodata.boot_get_loadable.str1.1
                0x000000004a058cfc       0x3e common/built-in.o
 .rodata.boot_get_ramdisk.str1.1
                0x000000004a058d3a       0xb7 common/built-in.o
                                        0x115 (size before relaxing)
 .rodata.boot_get_setup_fit.str1.1
                0x000000004a058df1       0x3b common/built-in.o
                                          0x6 (size before relaxing)
 .rodata.boot_jump_linux.str1.1
                0x000000004a058df1       0x30 arch/arm/lib/built-in.o
                                         0x31 (size before relaxing)
 .rodata.boot_prep_linux.str1.1
                0x000000004a058e21       0x20 arch/arm/lib/built-in.o
                                         0x29 (size before relaxing)
 .rodata.boot_prep_vxworks.str1.1
                0x000000004a058e41       0x2a arch/arm/lib/built-in.o
 .rodata.boot_ramdisk_high.str1.1
                0x000000004a058e6b       0x54 common/built-in.o
 .rodata.boot_relocate_fdt.str1.1
                0x000000004a058ebf       0xcf common/built-in.o
                                         0xd3 (size before relaxing)
 .rodata.bootdelay_process.str1.1
                0x000000004a058f8e       0x3a common/built-in.o
                                         0x42 (size before relaxing)
 .rodata.bootm_decomp_image.str1.1
                0x000000004a058fc8       0x99 common/built-in.o
                                         0xc0 (size before relaxing)
 .rodata.bootm_find_images.str1.1
                0x000000004a059061       0x6c common/built-in.o
 .rodata.bootm_maybe_autostart.str1.1
                0x000000004a0590cd       0x3b cmd/built-in.o
 .rodata.bootp_request.str1.1
                0x000000004a059108       0x25 net/built-in.o
 .rodata.bootp_timeout_handler.str1.1
                0x000000004a05912d       0x26 net/built-in.o
 .rodata.calculate_hash.str1.1
                0x000000004a059153        0x4 common/built-in.o
                                         0x16 (size before relaxing)
 .rodata.check_reserved.str1.1
                0x000000004a059157       0x27 drivers/gpio/built-in.o
                                         0x28 (size before relaxing)
 .rodata.cli_process_fdt.str1.1
                0x000000004a05917e        0xb common/built-in.o
                                         0x13 (size before relaxing)
 .rodata.cli_readline_into_buffer.str1.1
                0x000000004a059189        0x7 common/built-in.o
                                          0x8 (size before relaxing)
 .rodata.cli_secure_boot_cmd.str1.1
                0x000000004a059190       0x50 common/built-in.o
 .rodata.cmd_auto_complete.str1.1
                0x000000004a0591e0       0x5f common/built-in.o
                                          0xf (size before relaxing)
 .rodata.cmd_process.str1.1
                0x000000004a0591e0       0x3f common/built-in.o
 .rodata.cmd_process_error.str1.1
                0x000000004a05921f       0x1f common/built-in.o
 .rodata.cmd_usage.str1.1
                0x000000004a05923e       0x36 common/built-in.o
 .rodata.common_diskboot.str1.1
                0x000000004a059274       0xbf cmd/built-in.o
 .rodata.compile.str1.1
                0x000000004a059333       0x4a lib/built-in.o
 .rodata.cread_add_char.str1.1
                0x000000004a05937d        0x5 common/built-in.o
 .rodata.create_table.str1.1
                0x000000004a059382       0x62 arch/arm/cpu/armv8/built-in.o
 .rodata.dev_get_platdata.str1.1
                0x000000004a0593e4       0x11 drivers/built-in.o
 .rodata.dev_print.str1.1
                0x000000004a0593f5      0x14d disk/built-in.o
                                        0x15e (size before relaxing)
 .rodata.devfdt_get_addr_index.str1.1
                0x000000004a059542        0x4 drivers/built-in.o
 .rodata.devfdt_get_addr_name.str1.1
                0x000000004a059542        0xa drivers/built-in.o
 .rodata.device_bind_common.isra.0.str1.1
                0x000000004a05954c       0x5b drivers/built-in.o
 .rodata.device_probe.str1.1
                0x000000004a0595a7       0x30 drivers/built-in.o
 .rodata.device_remove.str1.1
                0x000000004a0595d7       0x98 drivers/built-in.o
 .rodata.dhcp_extended.str1.1
                0x000000004a05966f       0x37 net/built-in.o
                                         0x3f (size before relaxing)
 .rodata.dhcp_handler.str1.1
                0x000000004a0596a6       0x41 net/built-in.o
                                         0x4a (size before relaxing)
 .rodata.dhcp_process_options.str1.1
                0x000000004a0596e7       0x78 net/built-in.o
 .rodata.disable_periodic.isra.1.str1.1
                0x000000004a05975f       0x33 drivers/usb/host/built-in.o
 .rodata.disk_write.str1.1
                0x000000004a059792       0x18 fs/built-in.o
 .rodata.display_options.str1.1
                0x000000004a0597aa        0x3 lib/built-in.o
 .rodata.display_options_get_banner_priv.str1.1
                0x000000004a0597aa        0xc lib/built-in.o
                                         0x15 (size before relaxing)
 .rodata.dm_dump_all.str1.1
                0x000000004a0597b6       0x26 drivers/built-in.o
                                         0x50 (size before relaxing)
 .rodata.dm_dump_uclass.str1.1
                0x000000004a0597dc       0x32 drivers/built-in.o
                                         0x34 (size before relaxing)
 .rodata.dm_extended_scan_fdt.str1.1
                0x000000004a05980e        0x8 drivers/built-in.o
 .rodata.dm_fdt_pre_reloc.str1.1
                0x000000004a059816       0x30 drivers/built-in.o
 .rodata.dm_gpio_get_value.str1.1
                0x000000004a059846        0xa drivers/gpio/built-in.o
 .rodata.dm_gpio_set_dir_flags.str1.1
                0x000000004a059850        0x8 drivers/gpio/built-in.o
 .rodata.dm_gpio_set_value.str1.1
                0x000000004a059858        0xa drivers/gpio/built-in.o
 .rodata.dm_init.str1.1
                0x000000004a059862       0x25 drivers/built-in.o
 .rodata.dm_root.str1.1
                0x000000004a059887       0x25 drivers/built-in.o
 .rodata.dm_scan_fdt_node.str1.1
                0x000000004a0598ac       0x1d drivers/built-in.o
 .rodata.dm_scan_platdata.str1.1
                0x000000004a0598c9       0x1d drivers/built-in.o
 .rodata.do_bad_error.str1.1
                0x000000004a0598e6       0x29 arch/arm/lib/built-in.o
 .rodata.do_bad_fiq.str1.1
                0x000000004a05990f       0x27 arch/arm/lib/built-in.o
 .rodata.do_bad_irq.str1.1
                0x000000004a059936       0x27 arch/arm/lib/built-in.o
 .rodata.do_bad_sync.str1.1
                0x000000004a05995d       0x48 arch/arm/lib/built-in.o
 .rodata.do_bdinfo.str1.1
                0x000000004a0599a5       0xa4 cmd/built-in.o
 .rodata.do_bootd.str1.1
                0x000000004a059a49        0x8 cmd/built-in.o
 .rodata.do_bootefi.str1.1
                0x000000004a059a51       0x7d cmd/built-in.o
 .rodata.do_bootefi_exec.str1.1
                0x000000004a059ace      0x12b cmd/built-in.o
 .rodata.do_bootelf.str1.1
                0x000000004a059bf9       0x52 cmd/built-in.o
                                         0x5c (size before relaxing)
 .rodata.do_booti.str1.1
                0x000000004a059c4b       0x4c cmd/built-in.o
 .rodata.do_bootm.str1.1
                0x000000004a059c97       0x2a cmd/built-in.o
 .rodata.do_bootm_netbsd.str1.1
                0x000000004a059cc1       0x49 common/built-in.o
                                         0x4a (size before relaxing)
 .rodata.do_bootm_plan9.str1.1
                0x000000004a059d0a       0x43 common/built-in.o
                                         0x4c (size before relaxing)
 .rodata.do_bootm_qnxelf.str1.1
                0x000000004a059d4d        0x4 common/built-in.o
 .rodata.do_bootm_rtems.str1.1
                0x000000004a059d4d       0x39 common/built-in.o
 .rodata.do_bootm_standalone.str1.1
                0x000000004a059d86       0x16 common/built-in.o
 .rodata.do_bootm_states.str1.1
                0x000000004a059d86      0x287 common/built-in.o
                                        0x2ff (size before relaxing)
 .rodata.do_bootvx.str1.1
                0x000000004a05a00d      0x1bd cmd/built-in.o
                                        0x1d0 (size before relaxing)
 .rodata.do_bootvx_fdt.str1.1
                0x000000004a05a1ca       0x57 common/built-in.o
                                         0x75 (size before relaxing)
 .rodata.do_coninfo.str1.1
                0x000000004a05a221       0x2c cmd/built-in.o
                                         0x30 (size before relaxing)
 .rodata.do_echo.str1.1
                0x000000004a05a24d        0x3 cmd/built-in.o
 .rodata.do_env_default.str1.1
                0x000000004a05a250       0x25 cmd/built-in.o
 .rodata.do_env_edit.part.2.str1.1
                0x000000004a05a275        0x7 cmd/built-in.o
                                          0xa (size before relaxing)
 .rodata.do_env_export.str1.1
                0x000000004a05a27c       0x2b cmd/built-in.o
                                         0x34 (size before relaxing)
 .rodata.do_env_import.str1.1
                0x000000004a05a2a7      0x12f cmd/built-in.o
 .rodata.do_env_print.str1.1
                0x000000004a05a3d6       0x3d cmd/built-in.o
 .rodata.do_env_save.str1.1
                0x000000004a05a413       0x1d cmd/built-in.o
 .rodata.do_error.str1.1
                0x000000004a05a430       0x48 arch/arm/lib/built-in.o
                                         0x1d (size before relaxing)
 .rodata.do_fat_fsinfo.str1.1
                0x000000004a05a430       0x56 cmd/built-in.o
 .rodata.do_fat_fswrite.str1.1
                0x000000004a05a486       0x6b cmd/built-in.o
 .rodata.do_fat_write.str1.1
                0x000000004a05a4f1       0xd6 fs/built-in.o
 .rodata.do_fdt.str1.1
                0x000000004a05a5c7      0x4c0 cmd/built-in.o
                                        0x4ea (size before relaxing)
 .rodata.do_fiq.str1.1
                0x000000004a05aa87       0x48 arch/arm/lib/built-in.o
                                         0x1b (size before relaxing)
 .rodata.do_fixup_by_path.str1.1
                0x000000004a05aa87       0x29 common/built-in.o
 .rodata.do_fs_uuid.str1.1
                0x000000004a05aab0        0x4 fs/built-in.o
 .rodata.do_get_any.str1.1
                0x000000004a05aab0        0x5 cmd/built-in.o
 .rodata.do_get_ext2.str1.1
                0x000000004a05aab0        0x9 cmd/built-in.o
 .rodata.do_get_fat.str1.1
                0x000000004a05aab0        0x8 cmd/built-in.o
 .rodata.do_get_tftp.str1.1
                0x000000004a05aab0        0x5 cmd/built-in.o
 .rodata.do_go.str1.1
                0x000000004a05aab0       0x4f cmd/built-in.o
 .rodata.do_gpio.str1.1
                0x000000004a05aaff       0xc4 cmd/built-in.o
                                         0xd2 (size before relaxing)
 .rodata.do_gpt.str1.1
                0x000000004a05abc3       0xd6 cmd/built-in.o
                                         0xef (size before relaxing)
 .rodata.do_imgextract.str1.1
                0x000000004a05ac99      0x1af cmd/built-in.o
                                        0x296 (size before relaxing)
 .rodata.do_irq.str1.1
                0x000000004a05ae48       0x48 arch/arm/lib/built-in.o
                                         0x1b (size before relaxing)
 .rodata.do_itest.str1.1
                0x000000004a05ae48       0x1e cmd/built-in.o
 .rodata.do_load.str1.1
                0x000000004a05ae66       0x39 fs/built-in.o
                                         0x5b (size before relaxing)
 .rodata.do_load_serial.str1.1
                0x000000004a05ae9f       0x6b cmd/built-in.o
 .rodata.do_load_serial_bin.str1.1
                0x000000004a05af0a      0x159 cmd/built-in.o
 .rodata.do_load_wrapper.str1.1
                0x000000004a05b063        0x1 cmd/built-in.o
 .rodata.do_ls.str1.1
                0x000000004a05b063        0x2 fs/built-in.o
 .rodata.do_lzmadec.str1.1
                0x000000004a05b063       0x1f cmd/built-in.o
                                         0x28 (size before relaxing)
 .rodata.do_mdio.str1.1
                0x000000004a05b082       0x65 cmd/built-in.o
 .rodata.do_mem_base.str1.1
                0x000000004a05b0e7       0x17 cmd/built-in.o
 .rodata.do_mem_cmp.str1.1
                0x000000004a05b0fe       0x6a cmd/built-in.o
                                         0x6f (size before relaxing)
 .rodata.do_mem_cp.str1.1
                0x000000004a05b168       0x11 cmd/built-in.o
 .rodata.do_mem_crc.str1.1
                0x000000004a05b179        0x6 cmd/built-in.o
 .rodata.do_mii.str1.1
                0x000000004a05b17f      0x297 cmd/built-in.o
                                        0x2b0 (size before relaxing)
 .rodata.do_mmc_dev.str1.1
                0x000000004a05b416       0x80 cmd/built-in.o
                                         0x89 (size before relaxing)
 .rodata.do_mmc_erase.str1.1
                0x000000004a05b496       0x67 cmd/built-in.o
 .rodata.do_mmc_hwpartition.str1.1
                0x000000004a05b4fd      0x126 cmd/built-in.o
                                        0x142 (size before relaxing)
 .rodata.do_mmc_part.str1.1
                0x000000004a05b623       0x15 cmd/built-in.o
 .rodata.do_mmc_read.str1.1
                0x000000004a05b638       0x43 cmd/built-in.o
 .rodata.do_mmc_setdsr.str1.1
                0x000000004a05b67b       0x1d cmd/built-in.o
 .rodata.do_mmc_write.str1.1
                0x000000004a05b698       0x47 cmd/built-in.o
 .rodata.do_mmcinfo.str1.1
                0x000000004a05b6df      0x107 cmd/built-in.o
                                        0x159 (size before relaxing)
 .rodata.do_mmcops.str1.1
                0x000000004a05b7e6       0x19 cmd/built-in.o
 .rodata.do_part.str1.1
                0x000000004a05b7ff       0x16 cmd/built-in.o
                                         0x15 (size before relaxing)
 .rodata.do_part_list.str1.1
                0x000000004a05b7ff       0x22 cmd/built-in.o
                                         0x25 (size before relaxing)
 .rodata.do_part_start.str1.1
                0x000000004a05b821        0x4 cmd/built-in.o
                                          0x8 (size before relaxing)
 .rodata.do_ping.str1.1
                0x000000004a05b825       0x35 cmd/built-in.o
 .rodata.do_pxe_boot.str1.1
                0x000000004a05b85a       0x38 cmd/built-in.o
 .rodata.do_pxe_get.str1.1
                0x000000004a05b892       0x41 cmd/built-in.o
                                         0x46 (size before relaxing)
 .rodata.do_reset.str1.1
                0x000000004a05b8d3        0xf arch/arm/lib/built-in.o
 .rodata.do_run.str1.1
                0x000000004a05b8e2       0x1c common/built-in.o
 .rodata.do_save.str1.1
                0x000000004a05b8e2       0x1d fs/built-in.o
 .rodata.do_setexpr.str1.1
                0x000000004a05b8ff       0x11 cmd/built-in.o
                                         0x15 (size before relaxing)
 .rodata.do_showvar.str1.1
                0x000000004a05b910        0xc common/built-in.o
                                         0x2f (size before relaxing)
 .rodata.do_size.str1.1
                0x000000004a05b91c        0x9 fs/built-in.o
 .rodata.do_source.str1.1
                0x000000004a05b91c       0x1e cmd/built-in.o
 .rodata.do_sync.str1.1
                0x000000004a05b93a       0x48 arch/arm/lib/built-in.o
                                         0x29 (size before relaxing)
 .rodata.do_sysboot.str1.1
                0x000000004a05b93a       0x43 cmd/built-in.o
 .rodata.do_unzip.str1.1
                0x000000004a05b97d       0x20 cmd/built-in.o
                                         0x29 (size before relaxing)
 .rodata.do_usb.str1.1
                0x000000004a05b99d      0x272 cmd/built-in.o
                                        0x293 (size before relaxing)
 .rodata.do_usbboot.str1.1
                0x000000004a05bc0f        0x4 cmd/built-in.o
 .rodata.do_version.str1.1
                0x000000004a05bc13       0x61 cmd/built-in.o
 .rodata.efi_bootmgr_load.str1.1
                0x000000004a05bc74        0xe lib/built-in.o
 .rodata.efi_console_register.str1.1
                0x000000004a05bc82       0x79 lib/built-in.o
 .rodata.efi_convert_device_node_to_text.isra.1.str1.1
                0x000000004a05bcfb      0x119 lib/built-in.o
                                        0x11f (size before relaxing)
 .rodata.efi_cout_clear_screen.str1.1
                0x000000004a05be14        0x5 lib/built-in.o
 .rodata.efi_cout_enable_cursor.str1.1
                0x000000004a05be19        0x8 lib/built-in.o
 .rodata.efi_cout_query_mode.str1.1
                0x000000004a05be21        0x6 lib/built-in.o
                                         0x18 (size before relaxing)
 .rodata.efi_cout_set_attribute.str1.1
                0x000000004a05be27       0x17 lib/built-in.o
 .rodata.efi_cout_set_cursor_position.str1.1
                0x000000004a05be3e        0x9 lib/built-in.o
 .rodata.efi_disk_register.str1.1
                0x000000004a05be47       0x2f lib/built-in.o
                                         0x34 (size before relaxing)
 .rodata.efi_file_from_path.str1.1
                0x000000004a05be76       0x10 lib/built-in.o
 .rodata.efi_get_variable.str1.1
                0x000000004a05be86       0x30 lib/built-in.o
                                         0x37 (size before relaxing)
 .rodata.efi_load_pe.str1.1
                0x000000004a05beb6       0xbc lib/built-in.o
 .rodata.efi_net_register.str1.1
                0x000000004a05bf72       0x4d lib/built-in.o
 .rodata.efi_runtime_relocate.str1.1
                0x000000004a05bfbf       0x34 lib/built-in.o
 .rodata.efi_set_bootdev.str1.1
                0x000000004a05bff3        0x4 cmd/built-in.o
                                          0xb (size before relaxing)
 .rodata.efi_set_variable.str1.1
                0x000000004a05bff7       0x16 lib/built-in.o
                                         0x1a (size before relaxing)
 .rodata.efi_to_native.str1.1
                0x000000004a05c00d        0xa lib/built-in.o
 .rodata.ehci_register.str1.1
                0x000000004a05c017       0x26 drivers/usb/host/built-in.o
 .rodata.ehci_shutdown.str1.1
                0x000000004a05c03d       0x2b drivers/usb/host/built-in.o
 .rodata.ehci_submit_async.str1.1
                0x000000004a05c068       0xb5 drivers/usb/host/built-in.o
 .rodata.ehci_submit_control_msg.str1.1
                0x000000004a05c11d       0x16 drivers/usb/host/built-in.o
 .rodata.ehci_submit_int_msg.str1.1
                0x000000004a05c133       0x24 drivers/usb/host/built-in.o
 .rodata.ehci_td_buffer.str1.1
                0x000000004a05c157       0x29 drivers/usb/host/built-in.o
 .rodata.emit.str1.1
                0x000000004a05c180       0x1f lib/built-in.o
 .rodata.enable_periodic.isra.2.str1.1
                0x000000004a05c19f       0x32 drivers/usb/host/built-in.o
 .rodata.env_callback_init.str1.1
                0x000000004a05c1d1        0xb env/built-in.o
 .rodata.env_complete.str1.1
                0x000000004a05c1dc        0x4 env/built-in.o
 .rodata.env_export.str1.1
                0x000000004a05c1dc       0x27 env/built-in.o
 .rodata.env_flags_init.str1.1
                0x000000004a05c1dc        0x7 env/built-in.o
 .rodata.env_flags_parse_varaccess.str1.1
                0x000000004a05c1e3       0x3d env/built-in.o
 .rodata.env_flags_parse_vartype.str1.1
                0x000000004a05c220       0x34 env/built-in.o
 .rodata.env_flags_validate.str1.1
                0x000000004a05c254       0xb2 env/built-in.o
                                         0xb3 (size before relaxing)
 .rodata.env_get_bootm_low.str1.1
                0x000000004a05c306        0xa common/built-in.o
 .rodata.env_get_bootm_mapsize.str1.1
                0x000000004a05c310        0xe common/built-in.o
 .rodata.env_get_bootm_size.str1.1
                0x000000004a05c31e        0xb common/built-in.o
 .rodata.env_get_f.str1.1
                0x000000004a05c329       0x30 cmd/built-in.o
 .rodata.env_import.str1.1
                0x000000004a05c359       0x3f env/built-in.o
 .rodata.env_mmc_load.str1.1
                0x000000004a05c398        0xd env/built-in.o
 .rodata.env_mmc_save.str1.1
                0x000000004a05c3a5       0x3d env/built-in.o
                                         0x50 (size before relaxing)
 .rodata.env_print.str1.1
                0x000000004a05c3e2       0x25 cmd/built-in.o
                                         0x2c (size before relaxing)
 .rodata.env_set.str1.1
                0x000000004a05c407        0x7 cmd/built-in.o
 .rodata.env_set_hex.str1.1
                0x000000004a05c40e        0x4 cmd/built-in.o
 .rodata.eth_current_changed.str1.1
                0x000000004a05c40e       0x14 net/built-in.o
 .rodata.eth_env_get_enetaddr_by_index.str1.1
                0x000000004a05c40e       0x10 net/built-in.o
 .rodata.eth_env_set_enetaddr.str1.1
                0x000000004a05c41e        0x4 net/built-in.o
 .rodata.eth_get_name.str1.1
                0x000000004a05c422        0x8 net/built-in.o
 .rodata.eth_init.str1.1
                0x000000004a05c422       0x11 net/built-in.o
                                         0x28 (size before relaxing)
 .rodata.eth_initialize.str1.1
                0x000000004a05c433       0x1c net/built-in.o
                                         0x1f (size before relaxing)
 .rodata.eth_mac_skip.str1.1
                0x000000004a05c44f       0x18 net/built-in.o
 .rodata.eth_post_bind.str1.1
                0x000000004a05c467       0x2b net/built-in.o
 .rodata.eth_post_probe.str1.1
                0x000000004a05c492       0xaf net/built-in.o
                                         0xb3 (size before relaxing)
 .rodata.eth_set_current.str1.1
                0x000000004a05c541        0x9 net/built-in.o
 .rodata.eth_write_hwaddr.str1.1
                0x000000004a05c541       0x4e net/built-in.o
 .rodata.ext4_read_file.str1.1
                0x000000004a05c58f       0x19 fs/built-in.o
 .rodata.ext4fs_iterate_dir.str1.1
                0x000000004a05c5a8       0x43 fs/built-in.o
                                         0x4a (size before relaxing)
 .rodata.ext4fs_ls.str1.1
                0x000000004a05c5eb       0x1f fs/built-in.o
 .rodata.ext4fs_mount.str1.1
                0x000000004a05c60a       0x24 fs/built-in.o
 .rodata.extract_env.str1.1
                0x000000004a05c62e        0x3 cmd/built-in.o
 .rodata.extract_val.str1.1
                0x000000004a05c631        0x3 cmd/built-in.o
                                          0x4 (size before relaxing)
 .rodata.fat_itr_root.str1.1
                0x000000004a05c631       0x33 fs/built-in.o
 .rodata.fat_read_file.str1.1
                0x000000004a05c664       0x1e fs/built-in.o
 .rodata.fat_set_blk_dev.str1.1
                0x000000004a05c682        0x3 fs/built-in.o
                                          0xd (size before relaxing)
 .rodata.fdt_address_cells.str1.1
                0x000000004a05c685        0xf lib/built-in.o
 .rodata.fdt_chosen.str1.1
                0x000000004a05c694       0x6c common/built-in.o
                                         0x75 (size before relaxing)
 .rodata.fdt_error.str1.1
                0x000000004a05c700       0x2d common/built-in.o
 .rodata.fdt_find_or_add_subnode.str1.1
                0x000000004a05c72d        0xc common/built-in.o
 .rodata.fdt_fixup_ethernet.str1.1
                0x000000004a05c739       0x24 common/built-in.o
                                         0x42 (size before relaxing)
 .rodata.fdt_fixup_memory_banks.str1.1
                0x000000004a05c75d       0x85 common/built-in.o
                                         0x94 (size before relaxing)
 .rodata.fdt_get_alias_namelen.str1.1
                0x000000004a05c7e2        0x9 lib/built-in.o
 .rodata.fdt_get_phandle.str1.1
                0x000000004a05c7e2        0xe lib/built-in.o
                                         0x16 (size before relaxing)
 .rodata.fdt_initrd.str1.1
                0x000000004a05c7f0       0x90 common/built-in.o
                                         0x97 (size before relaxing)
 .rodata.fdt_node_check_compatible.str1.1
                0x000000004a05c880        0xb lib/built-in.o
 .rodata.fdt_root.str1.1
                0x000000004a05c880       0x46 common/built-in.o
                                         0x4e (size before relaxing)
 .rodata.fdt_set_node_status.str1.1
                0x000000004a05c8c6       0x33 common/built-in.o
                                         0x3a (size before relaxing)
 .rodata.fdt_setup_simplefb_node.str1.1
                0x000000004a05c8f9       0x2c common/built-in.o
 .rodata.fdt_size_cells.str1.1
                0x000000004a05c925        0xc lib/built-in.o
 .rodata.fdt_strerror.str1.1
                0x000000004a05c925       0x31 lib/built-in.o
 .rodata.fdt_support_default_count_cells.str1.1
                0x000000004a05c956        0xc common/built-in.o
 .rodata.fdt_translate_address.str1.1
                0x000000004a05c962       0x22 common/built-in.o
 .rodata.fdt_valid.str1.1
                0x000000004a05c984       0x79 cmd/built-in.o
                                         0x7b (size before relaxing)
 .rodata.fdtdec_add_aliases_for_id.str1.1
                0x000000004a05c9fd        0x9 lib/built-in.o
 .rodata.fdtdec_decode_display_timing.str1.1
                0x000000004a05c9fd       0xaa lib/built-in.o
                                         0xca (size before relaxing)
 .rodata.fdtdec_get_chosen_prop.str1.1
                0x000000004a05caa7        0x8 lib/built-in.o
 .rodata.fdtdec_get_config_int.str1.1
                0x000000004a05caa7        0x8 lib/built-in.o
 .rodata.fdtdec_get_is_enabled.str1.1
                0x000000004a05caaf        0xc lib/built-in.o
 .rodata.fdtdec_prepare_fdt.str1.1
                0x000000004a05caaf       0x96 lib/built-in.o
 .rodata.fdtdec_setup.str1.1
                0x000000004a05cb45        0xf lib/built-in.o
 .rodata.file_fat_detectfs.str1.1
                0x000000004a05cb45       0x64 fs/built-in.o
                                         0x84 (size before relaxing)
 .rodata.file_fat_read_at.str1.1
                0x000000004a05cba9       0x23 fs/built-in.o
 .rodata.file_fat_write.str1.1
                0x000000004a05cbcc       0x40 fs/built-in.o
 .rodata.file_get.str1.1
                0x000000004a05cc0c        0xc common/built-in.o
                                          0x7 (size before relaxing)
 .rodata.file_open.str1.1
                0x000000004a05cc0c        0xa lib/built-in.o
                                          0xb (size before relaxing)
 .rodata.find_mmc_device.str1.1
                0x000000004a05cc16       0x19 drivers/built-in.o
 .rodata.fit_all_image_verify.str1.1
                0x000000004a05cc2f       0x7a common/built-in.o
 .rodata.fit_conf_find_compat.str1.1
                0x000000004a05cca9       0x1b common/built-in.o
                                         0x1f (size before relaxing)
 .rodata.fit_conf_get_node.str1.1
                0x000000004a05ccc4        0x8 common/built-in.o
 .rodata.fit_conf_print.str1.1
                0x000000004a05ccc4       0x78 common/built-in.o
                                         0x96 (size before relaxing)
 .rodata.fit_get_desc.str1.1
                0x000000004a05cd3c        0xc common/built-in.o
 .rodata.fit_image_get_address.str1.1
                0x000000004a05cd48       0x1d common/built-in.o
 .rodata.fit_image_get_arch.str1.1
                0x000000004a05cd65       0x1d common/built-in.o
                                          0x5 (size before relaxing)
 .rodata.fit_image_get_comp.str1.1
                0x000000004a05cd65        0xc common/built-in.o
 .rodata.fit_image_get_data.str1.1
                0x000000004a05cd65        0x5 common/built-in.o
 .rodata.fit_image_get_entry.str1.1
                0x000000004a05cd6a        0x6 common/built-in.o
 .rodata.fit_image_get_load.str1.1
                0x000000004a05cd70        0x5 common/built-in.o
 .rodata.fit_image_get_node.str1.1
                0x000000004a05cd70        0x8 common/built-in.o
 .rodata.fit_image_get_os.str1.1
                0x000000004a05cd78        0x8 common/built-in.o
                                          0x3 (size before relaxing)
 .rodata.fit_image_get_type.str1.1
                0x000000004a05cd78        0x8 common/built-in.o
                                          0x5 (size before relaxing)
 .rodata.fit_image_hash_get_algo.str1.1
                0x000000004a05cd78        0x5 common/built-in.o
 .rodata.fit_image_hash_get_value.str1.1
                0x000000004a05cd7d        0x5 common/built-in.o
                                          0x6 (size before relaxing)
 .rodata.fit_image_load.str1.1
                0x000000004a05cd7d      0x1cd common/built-in.o
                                        0x1e0 (size before relaxing)
 .rodata.fit_image_print.str1.1
                0x000000004a05cf4a       0xeb common/built-in.o
                                         0xf8 (size before relaxing)
 .rodata.fit_image_print_data.str1.1
                0x000000004a05d035       0x67 common/built-in.o
                                         0x75 (size before relaxing)
 .rodata.fit_image_verify.str1.1
                0x000000004a05d09c       0xfa common/built-in.o
 .rodata.fit_print_contents.str1.1
                0x000000004a05d196       0x60 common/built-in.o
                                         0x64 (size before relaxing)
 .rodata.flush_dir_table.constprop.10.str1.1
                0x000000004a05d1f6       0x21 fs/built-in.o
 .rodata.format_mac_pxe.constprop.6.str1.1
                0x000000004a05d217       0x25 cmd/built-in.o
 .rodata.from_env.str1.1
                0x000000004a05d23c       0x22 cmd/built-in.o
 .rodata.fs_devread.str1.1
                0x000000004a05d25e       0x98 fs/built-in.o
 .rodata.fs_ls_generic.str1.1
                0x000000004a05d2f6       0x37 fs/built-in.o
 .rodata.fs_probe_unsupported.str1.1
                0x000000004a05d32d       0x24 fs/built-in.o
 .rodata.fs_read.str1.1
                0x000000004a05d351       0x24 fs/built-in.o
 .rodata.fs_write.str1.1
                0x000000004a05d375       0x1f fs/built-in.o
 .rodata.genimg_get_arch_id.str1.1
                0x000000004a05d394        0xb common/built-in.o
                                          0x4 (size before relaxing)
 .rodata.genimg_get_arch_name.str1.1
                0x000000004a05d394       0x15 common/built-in.o
 .rodata.genimg_get_comp_id.str1.1
                0x000000004a05d3a9       0x15 common/built-in.o
                                          0xc (size before relaxing)
 .rodata.genimg_get_comp_name.str1.1
                0x000000004a05d3a9       0x14 common/built-in.o
 .rodata.genimg_get_os_id.str1.1
                0x000000004a05d3bd       0x14 common/built-in.o
                                          0x3 (size before relaxing)
 .rodata.genimg_get_os_name.str1.1
                0x000000004a05d3bd        0xb common/built-in.o
 .rodata.genimg_get_type_id.str1.1
                0x000000004a05d3c8        0xb common/built-in.o
                                          0x6 (size before relaxing)
 .rodata.genimg_get_type_name.str1.1
                0x000000004a05d3c8        0xe common/built-in.o
 .rodata.genimg_print_size.str1.1
                0x000000004a05d3d6        0xc common/built-in.o
                                          0xe (size before relaxing)
 .rodata.genphy_update_link.str1.1
                0x000000004a05d3e2       0x54 drivers/net/phy/built-in.o
                                         0x56 (size before relaxing)
 .rodata.get_cluster.str1.1
                0x000000004a05d436       0x25 fs/built-in.o
 .rodata.get_descriptor_len.str1.1
                0x000000004a05d45b       0x64 common/built-in.o
 .rodata.get_fatent.str1.1
                0x000000004a05d4bf       0x22 fs/built-in.o
 .rodata.get_local_var.str1.1
                0x000000004a05d4e1        0x3 common/built-in.o
 .rodata.get_phy_device_by_mask.str1.1
                0x000000004a05d4e4       0x29 drivers/net/phy/built-in.o
 .rodata.get_pxe_file.str1.1
                0x000000004a05d50d        0x9 cmd/built-in.o
 .rodata.get_pxelinux_path.str1.1
                0x000000004a05d50d       0x3e cmd/built-in.o
 .rodata.get_relfile.str1.1
                0x000000004a05d54b       0x56 cmd/built-in.o
                                         0x63 (size before relaxing)
 .rodata.gpio_direction_input.str1.1
                0x000000004a05d5a1        0xa drivers/gpio/built-in.o
 .rodata.gpio_direction_output.str1.1
                0x000000004a05d5ab        0xb drivers/gpio/built-in.o
 .rodata.gpio_get_description.str1.1
                0x000000004a05d5b6        0xa cmd/built-in.o
                                         0x18 (size before relaxing)
 .rodata.gpio_get_status.str1.1
                0x000000004a05d5c0       0x17 drivers/gpio/built-in.o
                                         0x19 (size before relaxing)
 .rodata.gpio_request_by_name_nodev.str1.1
                0x000000004a05d5d7        0xc drivers/gpio/built-in.o
 .rodata.gpio_request_tail.str1.1
                0x000000004a05d5e3        0xe drivers/gpio/built-in.o
 .rodata.gpt_fill_header.str1.1
                0x000000004a05d5f1       0x24 disk/built-in.o
 .rodata.gpt_fill_pte.str1.1
                0x000000004a05d615       0x5b disk/built-in.o
 .rodata.gpt_verify_partitions.str1.1
                0x000000004a05d670       0xa3 disk/built-in.o
 .rodata.gzip_parse_header.str1.1
                0x000000004a05d713       0x3e lib/built-in.o
 .rodata.gzwrite.str1.1
                0x000000004a05d751      0x149 lib/built-in.o
 .rodata.gzwrite_progress.str1.1
                0x000000004a05d89a        0xb lib/built-in.o
 .rodata.gzwrite_progress_finish.str1.1
                0x000000004a05d8a5       0x4e lib/built-in.o
 .rodata.handle_include.str1.1
                0x000000004a05d8f3       0x33 cmd/built-in.o
 .rodata.handle_pxe_menu.str1.1
                0x000000004a05d926       0x15 cmd/built-in.o
                                         0x18 (size before relaxing)
 .rodata.hang.str1.1
                0x000000004a05d93b       0x2a lib/built-in.o
 .rodata.hash_command.str1.1
                0x000000004a05d965       0x58 common/built-in.o
                                         0x5f (size before relaxing)
 .rodata.hc_interrupt.str1.1
                0x000000004a05d9bd       0x8f drivers/usb/host/built-in.o
 .rodata.hc_reset.str1.1
                0x000000004a05da4c       0x40 drivers/usb/host/built-in.o
 .rodata.hexport_r.str1.1
                0x000000004a05da8c       0x30 lib/built-in.o
 .rodata.himport_r.str1.1
                0x000000004a05dabc       0x99 lib/built-in.o
 .rodata.i2c_chip_ofdata_to_platdata.str1.1
                0x000000004a05db55       0x16 drivers/i2c/built-in.o
                                         0x1a (size before relaxing)
 .rodata.i2c_get_chip.str1.1
                0x000000004a05db6b       0x20 drivers/i2c/built-in.o
 .rodata.i2c_post_probe.str1.1
                0x000000004a05db8b       0x10 drivers/i2c/built-in.o
 .rodata.image_info.str1.1
                0x000000004a05db9b       0xef cmd/built-in.o
 .rodata.image_print_contents.str1.1
                0x000000004a05dc8a       0xd0 common/built-in.o
                                         0xd4 (size before relaxing)
 .rodata.image_setup_libfdt.str1.1
                0x000000004a05dd5a       0xbb common/built-in.o
 .rodata.indent_string.str1.1
                0x000000004a05de15       0x15 lib/built-in.o
 .rodata.inflate.str1.1
                0x000000004a05de2a      0x158 lib/built-in.o
 .rodata.inflate_fast.str1.1
                0x000000004a05df82       0x50 lib/built-in.o
 .rodata.init_baud_rate.str1.1
                0x000000004a05dfd2        0x9 common/built-in.o
 .rodata.init_mmc_device.str1.1
                0x000000004a05dfdb       0x1a cmd/built-in.o
 .rodata.initcall_run_list.str1.1
                0x000000004a05dff5       0x31 lib/built-in.o
 .rodata.initr_env.str1.1
                0x000000004a05e026       0x20 common/built-in.o
                                         0x29 (size before relaxing)
 .rodata.initr_ethaddr.str1.1
                0x000000004a05e046        0x8 common/built-in.o
 .rodata.initr_mmc.str1.1
                0x000000004a05e046        0x8 common/built-in.o
 .rodata.initr_net.str1.1
                0x000000004a05e04e        0x8 common/built-in.o
 .rodata.insert_var_value_sub.str1.1
                0x000000004a05e056        0x6 common/built-in.o
 .rodata.ip_to_string.str1.1
                0x000000004a05e05c        0xc net/built-in.o
 .rodata.is_gpt_valid.str1.1
                0x000000004a05e068       0xea disk/built-in.o
 .rodata.label_boot.str1.1
                0x000000004a05e152      0x15e cmd/built-in.o
                                        0x19c (size before relaxing)
 .rodata.label_print.str1.1
                0x000000004a05e2b0        0x8 cmd/built-in.o
 .rodata.list_sort.str1.1
                0x000000004a05e2b8       0x34 lib/built-in.o
 .rodata.lists_bind_drivers.str1.1
                0x000000004a05e2ec       0x1a drivers/built-in.o
 .rodata.lists_bind_fdt.str1.1
                0x000000004a05e306       0x3f drivers/built-in.o
                                         0x4a (size before relaxing)
 .rodata.lmb_alloc_base.str1.1
                0x000000004a05e345       0x34 lib/built-in.o
 .rodata.load_serial.str1.1
                0x000000004a05e379       0x65 cmd/built-in.o
 .rodata.load_serial_ymodem.str1.1
                0x000000004a05e3de       0x31 cmd/built-in.o
                                         0x35 (size before relaxing)
 .rodata.main_loop.str1.1
                0x000000004a05e40f       0x19 common/built-in.o
 .rodata.match.str1.1
                0x000000004a05e428       0x18 lib/built-in.o
 .rodata.match_entry.str1.1
                0x000000004a05e440       0x1b lib/built-in.o
 .rodata.match_string.str1.1
                0x000000004a05e440       0x2c lib/built-in.o
 .rodata.mdio_list_devices.str1.1
                0x000000004a05e46c       0x12 common/built-in.o
                                         0x19 (size before relaxing)
 .rodata.mdio_phydev_for_ethname.str1.1
                0x000000004a05e47e       0x1c common/built-in.o
 .rodata.mdio_register.str1.1
                0x000000004a05e49a       0x2c common/built-in.o
 .rodata.menu_get_choice.str1.1
                0x000000004a05e4c6       0x1d common/built-in.o
                                         0x2a (size before relaxing)
 .rodata.miiphy_duplex.str1.1
                0x000000004a05e4e3       0x5a common/built-in.o
                                         0x68 (size before relaxing)
 .rodata.miiphy_get_dev_by_name.str1.1
                0x000000004a05e53d       0x13 common/built-in.o
 .rodata.miiphy_is_1000base_x.str1.1
                0x000000004a05e550       0x39 common/built-in.o
 .rodata.miiphy_listdev.str1.1
                0x000000004a05e589       0x2a common/built-in.o
 .rodata.miiphy_set_current_dev.str1.1
                0x000000004a05e5b3       0x14 common/built-in.o
 .rodata.miiphy_speed.str1.1
                0x000000004a05e5c7       0x5b common/built-in.o
 .rodata.misc_init_r.str1.1
                0x000000004a05e622       0x5b board/sunxi/built-in.o
                                         0x5f (size before relaxing)
 .rodata.mmc_berase.str1.1
                0x000000004a05e67d       0x6f drivers/built-in.o
 .rodata.mmc_bread.str1.1
                0x000000004a05e6ec       0x47 drivers/built-in.o
 .rodata.mmc_bwrite.str1.1
                0x000000004a05e733       0x12 drivers/built-in.o
                                         0x59 (size before relaxing)
 .rodata.mmc_get_env_addr.str1.1
                0x000000004a05e745       0x2f env/built-in.o
                                         0x35 (size before relaxing)
 .rodata.mmc_hwpart_config.str1.1
                0x000000004a05e774      0x19f drivers/built-in.o
 .rodata.mmc_init.str1.1
                0x000000004a05e913       0x12 drivers/built-in.o
 .rodata.mmc_send_status.str1.1
                0x000000004a05e925       0x32 drivers/built-in.o
 .rodata.mmc_set_mod_clk.str1.1
                0x000000004a05e957       0x25 drivers/built-in.o
 .rodata.mmc_start_init.str1.1
                0x000000004a05e97c       0x3f drivers/built-in.o
 .rodata.mmc_startup.str1.1
                0x000000004a05e9bb       0x38 drivers/built-in.o
                                         0x3e (size before relaxing)
 .rodata.mod_mem.isra.0.str1.1
                0x000000004a05e9f3       0x26 cmd/built-in.o
 .rodata.net_auto_load.str1.1
                0x000000004a05ea19        0xd net/built-in.o
 .rodata.net_loop.str1.1
                0x000000004a05ea26       0xe5 net/built-in.o
                                         0xf7 (size before relaxing)
 .rodata.net_process_received_packet.str1.1
                0x000000004a05eb0b       0x1d net/built-in.o
 .rodata.net_start_again.str1.1
                0x000000004a05eb28        0xe net/built-in.o
                                         0x15 (size before relaxing)
 .rodata.netboot_common.str1.1
                0x000000004a05eb36       0x16 cmd/built-in.o
                                         0x4a (size before relaxing)
 .rodata.nfs_handler.str1.1
                0x000000004a05eb4c       0x56 net/built-in.o
 .rodata.nfs_lookup_reply.str1.1
                0x000000004a05eba2       0x25 net/built-in.o
                                         0x27 (size before relaxing)
 .rodata.nfs_read_reply.isra.0.str1.1
                0x000000004a05ebc7        0x4 net/built-in.o
 .rodata.nfs_readlink_reply.str1.1
                0x000000004a05ebcb        0x2 net/built-in.o
 .rodata.nfs_start.str1.1
                0x000000004a05ebcb       0x1e net/built-in.o
                                         0x1f (size before relaxing)
 .rodata.nfs_timeout_handler.str1.1
                0x000000004a05ebe9       0x2a net/built-in.o
 .rodata.ns16550_serial_ofdata_to_platdata.str1.1
                0x000000004a05ec13       0x15 drivers/serial/built-in.o
                                         0x25 (size before relaxing)
 .rodata.ohci_create_int_queue.str1.1
                0x000000004a05ec28       0x80 drivers/usb/host/built-in.o
 .rodata.ohci_get_ohci_dev.str1.1
                0x000000004a05eca8       0x36 drivers/usb/host/built-in.o
 .rodata.ohci_register.str1.1
                0x000000004a05ecde       0x10 drivers/usb/host/built-in.o
 .rodata.ohci_submit_control_msg.str1.1
                0x000000004a05ecee       0x3e drivers/usb/host/built-in.o
 .rodata.on_baudrate.str1.1
                0x000000004a05ed2c       0x42 drivers/serial/built-in.o
                                         0x74 (size before relaxing)
 .rodata.on_callbacks.str1.1
                0x000000004a05ed6e      0x105 env/built-in.o
 .rodata.on_console.str1.1
                0x000000004a05ee73        0x5 common/built-in.o
                                         0x27 (size before relaxing)
 .rodata.on_flags.str1.1
                0x000000004a05ee73       0x5b env/built-in.o
 .rodata.parse_attr.part.1.str1.1
                0x000000004a05eece       0x1a lib/built-in.o
                                         0x23 (size before relaxing)
 .rodata.parse_integer.str1.1
                0x000000004a05eee8       0x17 cmd/built-in.o
 .rodata.parse_pxefile_top.str1.1
                0x000000004a05eeff       0x89 cmd/built-in.o
 .rodata.parse_sliteral.str1.1
                0x000000004a05ef88       0x1f cmd/built-in.o
 .rodata.parse_stream_outer.str1.1
                0x000000004a05efa7       0x4d common/built-in.o
 .rodata.parse_string_outer.str1.1
                0x000000004a05eff4        0x2 common/built-in.o
 .rodata.part_get_info_efi.str1.1
                0x000000004a05eff4        0xa disk/built-in.o
 .rodata.part_get_info_extended.str1.1
                0x000000004a05eff4        0xa disk/built-in.o
                                         0x11 (size before relaxing)
 .rodata.part_get_info_iso_verb.str1.1
                0x000000004a05effe      0x1bf disk/built-in.o
                                        0x1c6 (size before relaxing)
 .rodata.part_get_info_whole_disk.str1.1
                0x000000004a05f1bd        0xb disk/built-in.o
                                         0x12 (size before relaxing)
 .rodata.part_print.str1.1
                0x000000004a05f1c8       0x87 disk/built-in.o
                                         0x90 (size before relaxing)
 .rodata.part_print_dos.str1.1
                0x000000004a05f24f       0x2a disk/built-in.o
 .rodata.part_print_efi.str1.1
                0x000000004a05f279       0xf9 disk/built-in.o
 .rodata.part_print_iso.str1.1
                0x000000004a05f372       0x68 disk/built-in.o
 .rodata.part_set_generic_name.str1.1
                0x000000004a05f3da        0xa disk/built-in.o
 .rodata.phy_connect.str1.1
                0x000000004a05f3e4       0x23 drivers/net/phy/built-in.o
 .rodata.phy_connect_dev.str1.1
                0x000000004a05f407       0x2f drivers/net/phy/built-in.o
 .rodata.phy_reset.str1.1
                0x000000004a05f436       0x15 drivers/net/phy/built-in.o
 .rodata.ping_start.str1.1
                0x000000004a05f44b       0x11 net/built-in.o
 .rodata.print_buffer.str1.1
                0x000000004a05f45c        0x8 lib/built-in.o
                                         0x19 (size before relaxing)
 .rodata.print_cpuinfo.str1.1
                0x000000004a05f464       0x1e arch/arm/mach-sunxi/built-in.o
 .rodata.print_data.str1.1
                0x000000004a05f482       0x27 cmd/built-in.o
                                         0x32 (size before relaxing)
 .rodata.print_freq.str1.1
                0x000000004a05f4a9       0x1b lib/built-in.o
 .rodata.print_mmc_devices.str1.1
                0x000000004a05f4c4       0x12 drivers/built-in.o
                                         0x1c (size before relaxing)
 .rodata.print_num.str1.1
                0x000000004a05f4d6       0x10 cmd/built-in.o
 .rodata.print_partition_extended.str1.1
                0x000000004a05f4e6       0x83 disk/built-in.o
                                         0x84 (size before relaxing)
 .rodata.print_pre_console_buffer.str1.1
                0x000000004a05f569        0x7 common/built-in.o
 .rodata.print_size.str1.1
                0x000000004a05f569       0x15 lib/built-in.o
 .rodata.quantifier.str1.1
                0x000000004a05f57e       0x17 lib/built-in.o
 .rodata.read_allocated_block.str1.1
                0x000000004a05f595      0x240 fs/built-in.o
 .rodata.read_bootsectandvi.str1.1
                0x000000004a05f7d5       0x1b fs/built-in.o
 .rodata.realloc.str1.1
                0x000000004a05f7f0       0x25 common/built-in.o
 .rodata.regex_callback.str1.1
                0x000000004a05f815        0x5 env/built-in.o
                                         0x20 (size before relaxing)
 .rodata.regex_sub.str1.1
                0x000000004a05f81a       0xbd cmd/built-in.o
 .rodata.run_list_real.str1.1
                0x000000004a05f8d7       0x45 common/built-in.o
                                         0x4b (size before relaxing)
 .rodata.serial_init.str1.1
                0x000000004a05f91c       0x17 drivers/serial/built-in.o
                                         0x2b (size before relaxing)
 .rodata.set_default_env.str1.1
                0x000000004a05f933       0x4a env/built-in.o
                                         0x71 (size before relaxing)
 .rodata.set_gpt_info.isra.1.constprop.2.str1.1
                0x000000004a05f97d       0x8e cmd/built-in.o
                                         0xb0 (size before relaxing)
 .rodata.set_local_var.str1.1
                0x000000004a05fa0b       0x59 common/built-in.o
 .rodata.set_protective_mbr.str1.1
                0x000000004a05fa64       0x55 disk/built-in.o
 .rodata.set_working_fdt_addr.str1.1
                0x000000004a05fab9        0x8 cmd/built-in.o
 .rodata.setup_environment.str1.1
                0x000000004a05fac1       0x2e board/sunxi/built-in.o
 .rodata.setup_pgtables.str1.1
                0x000000004a05faef       0x2d arch/arm/cpu/armv8/built-in.o
 .rodata.show_board_info.str1.1
                0x000000004a05fb1c       0x11 common/built-in.o
 .rodata.show_devices.str1.1
                0x000000004a05fb2d       0x2d drivers/built-in.o
                                         0x36 (size before relaxing)
 .rodata.show_dram_config.str1.1
                0x000000004a05fb5a        0x1 common/built-in.o
 .rodata.show_regs.str1.1
                0x000000004a05fb5a       0x39 arch/arm/lib/built-in.o
                                         0x3b (size before relaxing)
 .rodata.simple_bus_post_bind.str1.1
                0x000000004a05fb93        0x7 drivers/built-in.o
 .rodata.simple_panel_ofdata_to_platdata.str1.1
                0x000000004a05fb93        0xd drivers/built-in.o
                                         0x17 (size before relaxing)
 .rodata.smbios_write_type0.str1.1
                0x000000004a05fba0       0x13 lib/built-in.o
                                         0x1a (size before relaxing)
 .rodata.smbios_write_type1.str1.1
                0x000000004a05fbb3        0x8 lib/built-in.o
 .rodata.smbios_write_type2.str1.1
                0x000000004a05fbb3       0x13 lib/built-in.o
                                          0x6 (size before relaxing)
 .rodata.smbios_write_type3.str1.1
                0x000000004a05fbb3        0x1 lib/built-in.o
 .rodata.smbios_write_type4.str1.1
                0x000000004a05fbb3        0x8 lib/built-in.o
 .rodata.sohci_submit_job.str1.1
                0x000000004a05fbb3       0xa6 drivers/usb/host/built-in.o
 .rodata.source.str1.1
                0x000000004a05fc59       0xfe cmd/built-in.o
                                        0x114 (size before relaxing)
 .rodata.split_block.str1.1
                0x000000004a05fd57       0x74 arch/arm/cpu/armv8/built-in.o
 .rodata.stdio_add_devices.str1.1
                0x000000004a05fdcb       0x1f common/built-in.o
                                         0x26 (size before relaxing)
 .rodata.stdio_deregister_dev.str1.1
                0x000000004a05fdea        0x8 common/built-in.o
 .rodata.stdio_get_by_name.str1.1
                0x000000004a05fdf2        0xb common/built-in.o
 .rodata.stdio_print_current_devices.str1.1
                0x000000004a05fdfd       0x70 common/built-in.o
                                         0x74 (size before relaxing)
 .rodata.store_char_in_data.str1.1
                0x000000004a05fe6d       0x1f lib/built-in.o
 .rodata.str1.1
                0x000000004a05fe8c     0x34c8 cmd/built-in.o
                                       0x37b0 (size before relaxing)
 .rodata.str1.1
                0x000000004a063354      0x785 common/built-in.o
                                        0x7ff (size before relaxing)
 .rodata.str1.1
                0x000000004a063ad9       0x1f disk/built-in.o
                                         0x22 (size before relaxing)
 .rodata.str1.1
                0x000000004a063af8      0x13f drivers/built-in.o
                                        0x171 (size before relaxing)
 .rodata.str1.1
                0x000000004a063c37      0x1ff drivers/gpio/built-in.o
                                        0x219 (size before relaxing)
 .rodata.str1.1
                0x000000004a063e36        0xc drivers/i2c/built-in.o
                                         0x10 (size before relaxing)
 .rodata.str1.1
                0x000000004a063e42       0x5b drivers/net/built-in.o
 .rodata.str1.1
                0x000000004a063e9d       0x5d drivers/net/phy/built-in.o
                                         0x76 (size before relaxing)
 .rodata.str1.1
                0x000000004a063efa       0xb0 drivers/serial/built-in.o
                                         0xc0 (size before relaxing)
 .rodata.str1.1
                0x000000004a063faa      0x768 drivers/usb/host/built-in.o
                                        0x76c (size before relaxing)
 .rodata.str1.1
                0x000000004a064712      0x105 env/built-in.o
                                         0x14 (size before relaxing)
 .rodata.str1.1
                0x000000004a064712       0x11 fs/built-in.o
                                         0x15 (size before relaxing)
 .rodata.str1.1
                0x000000004a064723      0x4e8 lib/built-in.o
                                        0x4e9 (size before relaxing)
 .rodata.str1.1
                0x000000004a064c0b        0x6 net/built-in.o
                                         0x3e (size before relaxing)
 .rodata.str1.1
                0x000000004a064c11       0xdc test/dm/built-in.o
                                         0xe2 (size before relaxing)
 .rodata.string.str1.1
                0x000000004a064ced        0x7 lib/built-in.o
 .rodata.submit_common_msg.str1.1
                0x000000004a064cf4       0x72 drivers/usb/host/built-in.o
 .rodata.substitute.str1.1
                0x000000004a064d66       0x28 cmd/built-in.o
 .rodata.sun8i_emac_eth_ofdata_to_platdata.str1.1
                0x000000004a064d8e      0x128 drivers/net/built-in.o
                                        0x135 (size before relaxing)
 .rodata.sun8i_emac_eth_recv.str1.1
                0x000000004a064eb6       0x25 drivers/net/built-in.o
 .rodata.sun8i_emac_eth_start.str1.1
                0x000000004a064edb        0xd drivers/net/built-in.o
 .rodata.sunxi_de2_probe.str1.1
                0x000000004a064ee8        0xa drivers/built-in.o
                                         0x22 (size before relaxing)
 .rodata.sunxi_dw_hdmi_probe.str1.1
                0x000000004a064ef2       0x21 drivers/built-in.o
 .rodata.sunxi_get_boot_device.str1.1
                0x000000004a064f13       0x21 arch/arm/mach-sunxi/built-in.o
 .rodata.sunxi_lcd_probe.str1.1
                0x000000004a064f34       0x1f drivers/built-in.o
 .rodata.sunxi_mmc_getcd_gpio.str1.1
                0x000000004a064f53        0x4 drivers/built-in.o
                                          0x5 (size before relaxing)
 .rodata.sunxi_mmc_init.str1.1
                0x000000004a064f57       0x29 drivers/built-in.o
 .rodata.sunxi_simplefb_fdt_match.str1.1
                0x000000004a064f80       0x30 drivers/built-in.o
 .rodata.sunxi_simplefb_setup.str1.1
                0x000000004a064fb0       0xab drivers/built-in.o
 .rodata.sunxi_usb_phy_probe.str1.1
                0x000000004a06505b       0x21 arch/arm/mach-sunxi/built-in.o
                                         0x22 (size before relaxing)
 .rodata.syntax_err.str1.1
                0x000000004a06507c        0xe common/built-in.o
 .rodata.td_fill.isra.2.str1.1
                0x000000004a06508a       0x17 drivers/usb/host/built-in.o
 .rodata.test_block_type.str1.1
                0x000000004a0650a1        0xa disk/built-in.o
 .rodata.tftp_handler.str1.1
                0x000000004a0650ab       0x72 net/built-in.o
                                         0x80 (size before relaxing)
 .rodata.tftp_send.str1.1
                0x000000004a06511d       0x36 net/built-in.o
                                         0x42 (size before relaxing)
 .rodata.tftp_start.str1.1
                0x000000004a065153      0x156 net/built-in.o
                                        0x181 (size before relaxing)
 .rodata.tftp_timeout_handler.str1.1
                0x000000004a0652a9       0x2a net/built-in.o
                                         0x2d (size before relaxing)
 .rodata.u_boot_hush_start.str1.1
                0x000000004a0652d3       0x12 common/built-in.o
 .rodata.uclass_resolve_seq.str1.1
                0x000000004a0652e5       0x27 drivers/built-in.o
 .rodata.usb_child_post_bind.str1.1
                0x000000004a06530c       0x25 drivers/usb/host/built-in.o
 .rodata.usb_display_class_sub.str1.1
                0x000000004a065331       0xb6 cmd/built-in.o
                                         0xbc (size before relaxing)
 .rodata.usb_display_config.str1.1
                0x000000004a0653e7      0x10d cmd/built-in.o
                                        0x118 (size before relaxing)
 .rodata.usb_display_desc.str1.1
                0x000000004a0654f4       0xac cmd/built-in.o
                                         0xae (size before relaxing)
 .rodata.usb_display_string.str1.1
                0x000000004a0655a0        0xd cmd/built-in.o
 .rodata.usb_find_usb2_hub_address_port.str1.1
                0x000000004a0655ad       0x36 common/built-in.o
 .rodata.usb_get_class_desc.str1.1
                0x000000004a0655e3       0x64 cmd/built-in.o
                                         0x65 (size before relaxing)
 .rodata.usb_get_configuration_len.str1.1
                0x000000004a065647       0x58 common/built-in.o
 .rodata.usb_hub_configure.str1.1
                0x000000004a06569f       0x5f common/built-in.o
 .rodata.usb_hub_port_connect_change.str1.1
                0x000000004a0656fe       0x18 common/built-in.o
 .rodata.usb_init.str1.1
                0x000000004a065716       0x7e drivers/usb/host/built-in.o
 .rodata.usb_kbd_probe.str1.1
                0x000000004a065794       0x5c common/built-in.o
 .rodata.usb_kbd_remove.str1.1
                0x000000004a0657f0       0x1b common/built-in.o
                                         0x21 (size before relaxing)
 .rodata.usb_mass_storage_probe.str1.1
                0x000000004a06580b       0x2d common/built-in.o
 .rodata.usb_scan_bus.isra.3.str1.1
                0x000000004a065838       0x4d drivers/usb/host/built-in.o
                                         0x5f (size before relaxing)
 .rodata.usb_scan_device.str1.1
                0x000000004a065885       0x2a drivers/usb/host/built-in.o
 .rodata.usb_select_config.str1.1
                0x000000004a0658af      0x220 common/built-in.o
 .rodata.usb_set_interface.str1.1
                0x000000004a065acf       0x1f common/built-in.o
 .rodata.usb_setup_descriptor.str1.1
                0x000000004a065aee       0x1d common/built-in.o
 .rodata.usb_setup_device.str1.1
                0x000000004a065b0b       0x68 common/built-in.o
 .rodata.usb_show_tree_graph.str1.1
                0x000000004a065b73       0x2f cmd/built-in.o
                                         0x3a (size before relaxing)
 .rodata.usb_stor_CBI_get_status.isra.2.str1.1
                0x000000004a065ba2       0x1f common/built-in.o
 .rodata.usb_stor_CB_transport.str1.1
                0x000000004a065bc1       0x6e common/built-in.o
 .rodata.usb_stor_get_info.str1.1
                0x000000004a065c2f       0x5d common/built-in.o
 .rodata.usb_stor_info.str1.1
                0x000000004a065c8c       0x32 common/built-in.o
                                         0x40 (size before relaxing)
 .rodata.usb_stor_scan.str1.1
                0x000000004a065cbe       0x48 common/built-in.o
 .rodata.usb_storage_probe.str1.1
                0x000000004a065d06       0x5c common/built-in.o
 .rodata.uuid_bin_to_str.str1.1
                0x000000004a065d62        0x5 lib/built-in.o
 .rodata.valid_elf_image.str1.1
                0x000000004a065d62       0x52 cmd/built-in.o
 .rodata.validate_gpt_entries.str1.1
                0x000000004a065db4       0x40 disk/built-in.o
 .rodata.validate_gpt_header.str1.1
                0x000000004a065df4       0xe1 disk/built-in.o
 .rodata.var_complete.str1.1
                0x000000004a065ed5        0x1 common/built-in.o
 .rodata.vidconsole_post_probe.str1.1
                0x000000004a065ed5       0x18 drivers/built-in.o
 .rodata.video_post_bind.str1.1
                0x000000004a065ed5       0x66 drivers/built-in.o
 .rodata.video_post_probe.str1.1
                0x000000004a065f3b       0x10 drivers/built-in.o
                                         0x1d (size before relaxing)
 .rodata.write_smbios_table.str1.1
                0x000000004a065f4b        0xb lib/built-in.o
 .rodata.xmalloc.str1.1
                0x000000004a065f56       0x1e common/built-in.o
 .rodata.xyzModem_error.str1.1
                0x000000004a065f74        0xe common/built-in.o
 .rodata.xyzModem_stream_close.str1.1
                0x000000004a065f82       0x47 common/built-in.o
                                         0x4b (size before relaxing)
 .rodata.xyzModem_stream_open.str1.1
                0x000000004a065fc9        0x2 common/built-in.o

.hash           0x000000004a065fd0       0x18
 .hash          0x000000004a065fd0       0x18 arch/arm/cpu/armv8/start.o
                0x000000004a065fe8                . = ALIGN (0x8)

.data           0x000000004a065fe8     0x2cc8
 *(.data*)
 .data.rel.ro   0x000000004a065fe8        0x0 arch/arm/cpu/armv8/start.o
 .data.mem_map  0x000000004a065fe8        0x8 arch/arm/mach-sunxi/built-in.o
                0x000000004a065fe8                mem_map
 .data.sunxi_mem_map
                0x000000004a065ff0       0x60 arch/arm/mach-sunxi/built-in.o
 .data.sunxi_usb_phy
                0x000000004a066050       0x50 arch/arm/mach-sunxi/built-in.o
 .data.bootm_help_text
                0x000000004a0660a0      0x4cf cmd/built-in.o
 *fill*         0x000000004a06656f        0x1 
 .data.cmd_bootm_sub
                0x000000004a066570      0x1b0 cmd/built-in.o
 .data.source_help_text
                0x000000004a066720       0xac cmd/built-in.o
 *fill*         0x000000004a0667cc        0x4 
 .data.bootefi_help_text
                0x000000004a0667d0      0x180 cmd/built-in.o
 .data.booti_help_text
                0x000000004a066950      0x1e1 cmd/built-in.o
 *fill*         0x000000004a066b31        0x7 
 .data.fdt_help_text
                0x000000004a066b38      0x649 cmd/built-in.o
 *fill*         0x000000004a067181        0x7 
 .data.root.6798
                0x000000004a067188        0x2 cmd/built-in.o
 *fill*         0x000000004a06718a        0x6 
 .data.tabs.6883
                0x000000004a067190       0x21 cmd/built-in.o
 *fill*         0x000000004a0671b1        0x3 
 .data.do_echo  0x000000004a0671b4        0x4 cmd/built-in.o
 .data.dp_last_length
                0x000000004a0671b8        0x8 cmd/built-in.o
 .data.cmd_mmc  0x000000004a0671c0      0x1e0 cmd/built-in.o
 .data.curr_device
                0x000000004a0673a0        0x4 cmd/built-in.o
 *fill*         0x000000004a0673a4        0x4 
 .data.cmd_pxe_sub
                0x000000004a0673a8       0x60 cmd/built-in.o
 .data.pxe_default_paths
                0x000000004a067408       0x20 cmd/built-in.o
                0x000000004a067408                pxe_default_paths
 .data.usb_stor_curr_dev
                0x000000004a067428        0x4 cmd/built-in.o
 *fill*         0x000000004a06742c        0x4 
 .data.imgextract_help_text
                0x000000004a067430       0xb2 cmd/built-in.o
 *fill*         0x000000004a0674e2        0x6 
 .data.cmd_env_sub
                0x000000004a0674e8      0x1e0 cmd/built-in.o
 .data.env_help_text
                0x000000004a0676c8      0x24f cmd/built-in.o
 *fill*         0x000000004a067917        0x1 
 .data.env_id   0x000000004a067918        0x4 cmd/built-in.o
 *fill*         0x000000004a06791c        0x4 
 .data.hash_algo
                0x000000004a067920       0xa8 common/built-in.o
 .data.reserved_list
                0x000000004a0679c8      0x108 common/built-in.o
 .data.init_sequence_r
                0x000000004a067ad0       0xe0 common/built-in.o
 .data.of_busses
                0x000000004a067bb0       0x30 common/built-in.o
 .data.usb_scan_list
                0x000000004a067be0       0x10 common/built-in.o
 .data.hist_cur
                0x000000004a067bf0        0x4 common/built-in.o
 *fill*         0x000000004a067bf4        0x4 
 .data.av_      0x000000004a067bf8      0x810 common/built-in.o
 .data.sbrk_base
                0x000000004a068408        0x8 common/built-in.o
 .data.trim_threshold
                0x000000004a068410        0x8 common/built-in.o
 .data.load_addr
                0x000000004a068418        0x8 common/built-in.o
                0x000000004a068418                load_addr
 .data.stdio_names
                0x000000004a068420       0x18 common/built-in.o
                0x000000004a068420                stdio_names
 .data.system_guid
                0x000000004a068438       0x10 disk/built-in.o
 .data.cur_dev_num
                0x000000004a068448        0x4 drivers/built-in.o
 *fill*         0x000000004a06844c        0x4 
 .data.console_normal_ops
                0x000000004a068450       0x28 drivers/built-in.o
                0x000000004a068450                console_normal_ops
 .data.genphy_driver
                0x000000004a068478       0x58 drivers/net/phy/built-in.o
 .data.phy_drivers
                0x000000004a0684d0       0x10 drivers/net/phy/built-in.o
 .data.ohci_usb_ops
                0x000000004a0684e0       0x50 drivers/usb/host/built-in.o
                0x000000004a0684e0                ohci_usb_ops
 .data.root_hub_config_des
                0x000000004a068530       0x19 drivers/usb/host/built-in.o
 *fill*         0x000000004a068549        0x7 
 .data.root_hub_dev_des
                0x000000004a068550       0x12 drivers/usb/host/built-in.o
 *fill*         0x000000004a068562        0x6 
 .data.root_hub_str_index0
                0x000000004a068568        0x4 drivers/usb/host/built-in.o
 *fill*         0x000000004a06856c        0x4 
 .data.root_hub_str_index1
                0x000000004a068570       0x20 drivers/usb/host/built-in.o
 .data.descriptor
                0x000000004a068590       0x39 drivers/usb/host/built-in.o
 *fill*         0x000000004a0685c9        0x7 
 .data.ehci_usb_ops
                0x000000004a0685d0       0x50 drivers/usb/host/built-in.o
                0x000000004a0685d0                ehci_usb_ops
 .data.env_htab
                0x000000004a068620       0x18 env/built-in.o
                0x000000004a068620                env_htab
 .data.first_call
                0x000000004a068638        0x8 env/built-in.o
 .data.fstypes  0x000000004a068640      0x150 fs/built-in.o
 .data.ext4fs_indir1_blkno
                0x000000004a068790        0x4 fs/built-in.o
                0x000000004a068790                ext4fs_indir1_blkno
 .data.ext4fs_indir2_blkno
                0x000000004a068794        0x4 fs/built-in.o
                0x000000004a068794                ext4fs_indir2_blkno
 .data.ext4fs_indir3_blkno
                0x000000004a068798        0x4 fs/built-in.o
                0x000000004a068798                ext4fs_indir3_blkno
 *fill*         0x000000004a06879c        0x4 
 .data.efi_obj_list
                0x000000004a0687a0       0x10 lib/built-in.o
                0x000000004a0687a0                efi_obj_list
 .data.efi_tpl  0x000000004a0687b0        0x8 lib/built-in.o
 .data.efi_runtime_mmio
                0x000000004a0687b8       0x10 lib/built-in.o
                0x000000004a0687b8                efi_runtime_mmio
 .data.__compound_literal.2
                0x000000004a0687c8       0x10 lib/built-in.o
 .data.__compound_literal.4
                0x000000004a0687d8       0x10 lib/built-in.o
 .data.efi_con_in
                0x000000004a0687e8       0x18 lib/built-in.o
                0x000000004a0687e8                efi_con_in
 .data.efi_con_mode
                0x000000004a068800       0x18 lib/built-in.o
 .data.efi_console_control_obj
                0x000000004a068818      0x118 lib/built-in.o
 .data.efi_console_input_obj
                0x000000004a068930      0x118 lib/built-in.o
 .data.efi_console_output_obj
                0x000000004a068a48      0x118 lib/built-in.o
 .data.efi_cout_modes
                0x000000004a068b60       0x48 lib/built-in.o
 .data.efi_mem  0x000000004a068ba8       0x10 lib/built-in.o
                0x000000004a068ba8                efi_mem
 .data.sha256_padding
                0x000000004a068bb8       0x40 lib/built-in.o
 .data.y        0x000000004a068bf8        0x4 lib/built-in.o
 .data.first_call.7270
                0x000000004a068bfc        0x4 net/built-in.o
 .data.net_native_vlan
                0x000000004a068c00        0x2 net/built-in.o
                0x000000004a068c00                net_native_vlan
 .data.net_our_vlan
                0x000000004a068c02        0x2 net/built-in.o
                0x000000004a068c02                net_our_vlan
 .data.nfs_offset
                0x000000004a068c04        0x4 net/built-in.o
 .data.supported_nfs_versions
                0x000000004a068c08        0x1 net/built-in.o
 *fill*         0x000000004a068c09        0x1 
 .data.tftp_block_size
                0x000000004a068c0a        0x2 net/built-in.o
 .data.tftp_block_size_option
                0x000000004a068c0c        0x2 net/built-in.o
 *fill*         0x000000004a068c0e        0x2 
 .data.tftp_timeout_count_max
                0x000000004a068c10        0x4 net/built-in.o
                0x000000004a068c10                tftp_timeout_count_max
 .data.timeout_count_max
                0x000000004a068c14        0x4 net/built-in.o
 .data.timeout_ms
                0x000000004a068c18        0x8 net/built-in.o
 .data.test_commands
                0x000000004a068c20       0x90 test/dm/built-in.o

.got            0x000000004a068cb0        0x8
 .got           0x000000004a068cb0        0x8 arch/arm/cpu/armv8/start.o
                0x000000004a068cb0                _GLOBAL_OFFSET_TABLE_

.got.plt        0x000000004a068cb8       0x18
 .got.plt       0x000000004a068cb8       0x18 arch/arm/cpu/armv8/start.o
                0x000000004a068cd0                . = ALIGN (0x8)
                0x000000004a068cd0                . = .
                0x000000004a068cd0                . = ALIGN (0x8)

.u_boot_list    0x000000004a068cd0     0x2220
 *(SORT(.u_boot_list*))
 .u_boot_list_2_blk_driver_1
                0x000000004a068cd0        0x0 drivers/built-in.o
 .u_boot_list_2_blk_driver_2_mmc
                0x000000004a068cd0       0x28 drivers/built-in.o
                0x000000004a068cd0                _u_boot_list_2_blk_driver_2_mmc
 .u_boot_list_2_blk_driver_2_usb
                0x000000004a068cf8       0x28 common/built-in.o
                0x000000004a068cf8                _u_boot_list_2_blk_driver_2_usb
 .u_boot_list_2_blk_driver_3
                0x000000004a068d20        0x0 drivers/built-in.o
 .u_boot_list_2_cmd_1
                0x000000004a068d20        0x0 cmd/built-in.o
 .u_boot_list_2_cmd_1
                0x000000004a068d20        0x0 common/built-in.o
 .u_boot_list_2_cmd_2_base
                0x000000004a068d20       0x30 cmd/built-in.o
                0x000000004a068d20                _u_boot_list_2_cmd_2_base
 .u_boot_list_2_cmd_2_bdinfo
                0x000000004a068d50       0x30 cmd/built-in.o
                0x000000004a068d50                _u_boot_list_2_cmd_2_bdinfo
 .u_boot_list_2_cmd_2_boot
                0x000000004a068d80       0x30 cmd/built-in.o
                0x000000004a068d80                _u_boot_list_2_cmd_2_boot
 .u_boot_list_2_cmd_2_bootd
                0x000000004a068db0       0x30 cmd/built-in.o
                0x000000004a068db0                _u_boot_list_2_cmd_2_bootd
 .u_boot_list_2_cmd_2_bootefi
                0x000000004a068de0       0x30 cmd/built-in.o
                0x000000004a068de0                _u_boot_list_2_cmd_2_bootefi
 .u_boot_list_2_cmd_2_bootelf
                0x000000004a068e10       0x30 cmd/built-in.o
                0x000000004a068e10                _u_boot_list_2_cmd_2_bootelf
 .u_boot_list_2_cmd_2_booti
                0x000000004a068e40       0x30 cmd/built-in.o
                0x000000004a068e40                _u_boot_list_2_cmd_2_booti
 .u_boot_list_2_cmd_2_bootm
                0x000000004a068e70       0x30 cmd/built-in.o
                0x000000004a068e70                _u_boot_list_2_cmd_2_bootm
 .u_boot_list_2_cmd_2_bootp
                0x000000004a068ea0       0x30 cmd/built-in.o
                0x000000004a068ea0                _u_boot_list_2_cmd_2_bootp
 .u_boot_list_2_cmd_2_bootvx
                0x000000004a068ed0       0x30 cmd/built-in.o
                0x000000004a068ed0                _u_boot_list_2_cmd_2_bootvx
 .u_boot_list_2_cmd_2_cmp
                0x000000004a068f00       0x30 cmd/built-in.o
                0x000000004a068f00                _u_boot_list_2_cmd_2_cmp
 .u_boot_list_2_cmd_2_coninfo
                0x000000004a068f30       0x30 cmd/built-in.o
                0x000000004a068f30                _u_boot_list_2_cmd_2_coninfo
 .u_boot_list_2_cmd_2_cp
                0x000000004a068f60       0x30 cmd/built-in.o
                0x000000004a068f60                _u_boot_list_2_cmd_2_cp
 .u_boot_list_2_cmd_2_crc32
                0x000000004a068f90       0x30 cmd/built-in.o
                0x000000004a068f90                _u_boot_list_2_cmd_2_crc32
 .u_boot_list_2_cmd_2_dhcp
                0x000000004a068fc0       0x30 cmd/built-in.o
                0x000000004a068fc0                _u_boot_list_2_cmd_2_dhcp
 .u_boot_list_2_cmd_2_dm
                0x000000004a068ff0       0x30 test/dm/built-in.o
                0x000000004a068ff0                _u_boot_list_2_cmd_2_dm
 .u_boot_list_2_cmd_2_echo
                0x000000004a069020       0x30 cmd/built-in.o
                0x000000004a069020                _u_boot_list_2_cmd_2_echo
 .u_boot_list_2_cmd_2_editenv
                0x000000004a069050       0x30 cmd/built-in.o
                0x000000004a069050                _u_boot_list_2_cmd_2_editenv
 .u_boot_list_2_cmd_2_env
                0x000000004a069080       0x30 cmd/built-in.o
                0x000000004a069080                _u_boot_list_2_cmd_2_env
 .u_boot_list_2_cmd_2_exit
                0x000000004a0690b0       0x30 cmd/built-in.o
                0x000000004a0690b0                _u_boot_list_2_cmd_2_exit
 .u_boot_list_2_cmd_2_ext2load
                0x000000004a0690e0       0x30 cmd/built-in.o
                0x000000004a0690e0                _u_boot_list_2_cmd_2_ext2load
 .u_boot_list_2_cmd_2_ext2ls
                0x000000004a069110       0x30 cmd/built-in.o
                0x000000004a069110                _u_boot_list_2_cmd_2_ext2ls
 .u_boot_list_2_cmd_2_ext4load
                0x000000004a069140       0x30 cmd/built-in.o
                0x000000004a069140                _u_boot_list_2_cmd_2_ext4load
 .u_boot_list_2_cmd_2_ext4ls
                0x000000004a069170       0x30 cmd/built-in.o
                0x000000004a069170                _u_boot_list_2_cmd_2_ext4ls
 .u_boot_list_2_cmd_2_ext4size
                0x000000004a0691a0       0x30 cmd/built-in.o
                0x000000004a0691a0                _u_boot_list_2_cmd_2_ext4size
 .u_boot_list_2_cmd_2_false
                0x000000004a0691d0       0x30 cmd/built-in.o
                0x000000004a0691d0                _u_boot_list_2_cmd_2_false
 .u_boot_list_2_cmd_2_fatinfo
                0x000000004a069200       0x30 cmd/built-in.o
                0x000000004a069200                _u_boot_list_2_cmd_2_fatinfo
 .u_boot_list_2_cmd_2_fatload
                0x000000004a069230       0x30 cmd/built-in.o
                0x000000004a069230                _u_boot_list_2_cmd_2_fatload
 .u_boot_list_2_cmd_2_fatls
                0x000000004a069260       0x30 cmd/built-in.o
                0x000000004a069260                _u_boot_list_2_cmd_2_fatls
 .u_boot_list_2_cmd_2_fatsize
                0x000000004a069290       0x30 cmd/built-in.o
                0x000000004a069290                _u_boot_list_2_cmd_2_fatsize
 .u_boot_list_2_cmd_2_fatwrite
                0x000000004a0692c0       0x30 cmd/built-in.o
                0x000000004a0692c0                _u_boot_list_2_cmd_2_fatwrite
 .u_boot_list_2_cmd_2_fdt
                0x000000004a0692f0       0x30 cmd/built-in.o
                0x000000004a0692f0                _u_boot_list_2_cmd_2_fdt
 .u_boot_list_2_cmd_2_fstype
                0x000000004a069320       0x30 cmd/built-in.o
                0x000000004a069320                _u_boot_list_2_cmd_2_fstype
 .u_boot_list_2_cmd_2_go
                0x000000004a069350       0x30 cmd/built-in.o
                0x000000004a069350                _u_boot_list_2_cmd_2_go
 .u_boot_list_2_cmd_2_gpio
                0x000000004a069380       0x30 cmd/built-in.o
                0x000000004a069380                _u_boot_list_2_cmd_2_gpio
 .u_boot_list_2_cmd_2_gpt
                0x000000004a0693b0       0x30 cmd/built-in.o
                0x000000004a0693b0                _u_boot_list_2_cmd_2_gpt
 .u_boot_list_2_cmd_2_gzwrite
                0x000000004a0693e0       0x30 cmd/built-in.o
                0x000000004a0693e0                _u_boot_list_2_cmd_2_gzwrite
 .u_boot_list_2_cmd_2_help
                0x000000004a069410       0x30 cmd/built-in.o
                0x000000004a069410                _u_boot_list_2_cmd_2_help
 .u_boot_list_2_cmd_2_iminfo
                0x000000004a069440       0x30 cmd/built-in.o
                0x000000004a069440                _u_boot_list_2_cmd_2_iminfo
 .u_boot_list_2_cmd_2_imxtract
                0x000000004a069470       0x30 cmd/built-in.o
                0x000000004a069470                _u_boot_list_2_cmd_2_imxtract
 .u_boot_list_2_cmd_2_itest
                0x000000004a0694a0       0x30 cmd/built-in.o
                0x000000004a0694a0                _u_boot_list_2_cmd_2_itest
 .u_boot_list_2_cmd_2_lcdputs
                0x000000004a0694d0       0x30 drivers/built-in.o
                0x000000004a0694d0                _u_boot_list_2_cmd_2_lcdputs
 .u_boot_list_2_cmd_2_load
                0x000000004a069500       0x30 cmd/built-in.o
                0x000000004a069500                _u_boot_list_2_cmd_2_load
 .u_boot_list_2_cmd_2_loadb
                0x000000004a069530       0x30 cmd/built-in.o
                0x000000004a069530                _u_boot_list_2_cmd_2_loadb
 .u_boot_list_2_cmd_2_loads
                0x000000004a069560       0x30 cmd/built-in.o
                0x000000004a069560                _u_boot_list_2_cmd_2_loads
 .u_boot_list_2_cmd_2_loadx
                0x000000004a069590       0x30 cmd/built-in.o
                0x000000004a069590                _u_boot_list_2_cmd_2_loadx
 .u_boot_list_2_cmd_2_loady
                0x000000004a0695c0       0x30 cmd/built-in.o
                0x000000004a0695c0                _u_boot_list_2_cmd_2_loady
 .u_boot_list_2_cmd_2_loop
                0x000000004a0695f0       0x30 cmd/built-in.o
                0x000000004a0695f0                _u_boot_list_2_cmd_2_loop
 .u_boot_list_2_cmd_2_ls
                0x000000004a069620       0x30 cmd/built-in.o
                0x000000004a069620                _u_boot_list_2_cmd_2_ls
 .u_boot_list_2_cmd_2_lzmadec
                0x000000004a069650       0x30 cmd/built-in.o
                0x000000004a069650                _u_boot_list_2_cmd_2_lzmadec
 .u_boot_list_2_cmd_2_md
                0x000000004a069680       0x30 cmd/built-in.o
                0x000000004a069680                _u_boot_list_2_cmd_2_md
 .u_boot_list_2_cmd_2_mdio
                0x000000004a0696b0       0x30 cmd/built-in.o
                0x000000004a0696b0                _u_boot_list_2_cmd_2_mdio
 .u_boot_list_2_cmd_2_mii
                0x000000004a0696e0       0x30 cmd/built-in.o
                0x000000004a0696e0                _u_boot_list_2_cmd_2_mii
 .u_boot_list_2_cmd_2_mm
                0x000000004a069710       0x30 cmd/built-in.o
                0x000000004a069710                _u_boot_list_2_cmd_2_mm
 .u_boot_list_2_cmd_2_mmc
                0x000000004a069740       0x30 cmd/built-in.o
                0x000000004a069740                _u_boot_list_2_cmd_2_mmc
 .u_boot_list_2_cmd_2_mmcinfo
                0x000000004a069770       0x30 cmd/built-in.o
                0x000000004a069770                _u_boot_list_2_cmd_2_mmcinfo
 .u_boot_list_2_cmd_2_mw
                0x000000004a0697a0       0x30 cmd/built-in.o
                0x000000004a0697a0                _u_boot_list_2_cmd_2_mw
 .u_boot_list_2_cmd_2_nfs
                0x000000004a0697d0       0x30 cmd/built-in.o
                0x000000004a0697d0                _u_boot_list_2_cmd_2_nfs
 .u_boot_list_2_cmd_2_nm
                0x000000004a069800       0x30 cmd/built-in.o
                0x000000004a069800                _u_boot_list_2_cmd_2_nm
 .u_boot_list_2_cmd_2_part
                0x000000004a069830       0x30 cmd/built-in.o
                0x000000004a069830                _u_boot_list_2_cmd_2_part
 .u_boot_list_2_cmd_2_ping
                0x000000004a069860       0x30 cmd/built-in.o
                0x000000004a069860                _u_boot_list_2_cmd_2_ping
 .u_boot_list_2_cmd_2_printenv
                0x000000004a069890       0x30 cmd/built-in.o
                0x000000004a069890                _u_boot_list_2_cmd_2_printenv
 .u_boot_list_2_cmd_2_pxe
                0x000000004a0698c0       0x30 cmd/built-in.o
                0x000000004a0698c0                _u_boot_list_2_cmd_2_pxe
 .u_boot_list_2_cmd_2_question_mark
                0x000000004a0698f0       0x30 cmd/built-in.o
                0x000000004a0698f0                _u_boot_list_2_cmd_2_question_mark
 .u_boot_list_2_cmd_2_reset
                0x000000004a069920       0x30 cmd/built-in.o
                0x000000004a069920                _u_boot_list_2_cmd_2_reset
 .u_boot_list_2_cmd_2_run
                0x000000004a069950       0x30 cmd/built-in.o
                0x000000004a069950                _u_boot_list_2_cmd_2_run
 .u_boot_list_2_cmd_2_save
                0x000000004a069980       0x30 cmd/built-in.o
                0x000000004a069980                _u_boot_list_2_cmd_2_save
 .u_boot_list_2_cmd_2_saveenv
                0x000000004a0699b0       0x30 cmd/built-in.o
                0x000000004a0699b0                _u_boot_list_2_cmd_2_saveenv
 .u_boot_list_2_cmd_2_setcurs
                0x000000004a0699e0       0x30 drivers/built-in.o
                0x000000004a0699e0                _u_boot_list_2_cmd_2_setcurs
 .u_boot_list_2_cmd_2_setenv
                0x000000004a069a10       0x30 cmd/built-in.o
                0x000000004a069a10                _u_boot_list_2_cmd_2_setenv
 .u_boot_list_2_cmd_2_setexpr
                0x000000004a069a40       0x30 cmd/built-in.o
                0x000000004a069a40                _u_boot_list_2_cmd_2_setexpr
 .u_boot_list_2_cmd_2_showvar
                0x000000004a069a70       0x30 common/built-in.o
                0x000000004a069a70                _u_boot_list_2_cmd_2_showvar
 .u_boot_list_2_cmd_2_size
                0x000000004a069aa0       0x30 cmd/built-in.o
                0x000000004a069aa0                _u_boot_list_2_cmd_2_size
 .u_boot_list_2_cmd_2_sleep
                0x000000004a069ad0       0x30 cmd/built-in.o
                0x000000004a069ad0                _u_boot_list_2_cmd_2_sleep
 .u_boot_list_2_cmd_2_source
                0x000000004a069b00       0x30 cmd/built-in.o
                0x000000004a069b00                _u_boot_list_2_cmd_2_source
 .u_boot_list_2_cmd_2_sysboot
                0x000000004a069b30       0x30 cmd/built-in.o
                0x000000004a069b30                _u_boot_list_2_cmd_2_sysboot
 .u_boot_list_2_cmd_2_test
                0x000000004a069b60       0x30 cmd/built-in.o
                0x000000004a069b60                _u_boot_list_2_cmd_2_test
 .u_boot_list_2_cmd_2_tftpboot
                0x000000004a069b90       0x30 cmd/built-in.o
                0x000000004a069b90                _u_boot_list_2_cmd_2_tftpboot
 .u_boot_list_2_cmd_2_true
                0x000000004a069bc0       0x30 cmd/built-in.o
                0x000000004a069bc0                _u_boot_list_2_cmd_2_true
 .u_boot_list_2_cmd_2_unzip
                0x000000004a069bf0       0x30 cmd/built-in.o
                0x000000004a069bf0                _u_boot_list_2_cmd_2_unzip
 .u_boot_list_2_cmd_2_usb
                0x000000004a069c20       0x30 cmd/built-in.o
                0x000000004a069c20                _u_boot_list_2_cmd_2_usb
 .u_boot_list_2_cmd_2_usbboot
                0x000000004a069c50       0x30 cmd/built-in.o
                0x000000004a069c50                _u_boot_list_2_cmd_2_usbboot
 .u_boot_list_2_cmd_2_version
                0x000000004a069c80       0x30 cmd/built-in.o
                0x000000004a069c80                _u_boot_list_2_cmd_2_version
 .u_boot_list_2_cmd_3
                0x000000004a069cb0        0x0 cmd/built-in.o
 .u_boot_list_2_cmd_3
                0x000000004a069cb0        0x0 common/built-in.o
 .u_boot_list_2_driver_1
                0x000000004a069cb0        0x0 drivers/built-in.o
 .u_boot_list_2_driver_2_ehci_sunxi
                0x000000004a069cb0       0x78 drivers/usb/host/built-in.o
                0x000000004a069cb0                _u_boot_list_2_driver_2_ehci_sunxi
 .u_boot_list_2_driver_2_eth_sun8i_emac
                0x000000004a069d28       0x78 drivers/net/built-in.o
                0x000000004a069d28                _u_boot_list_2_driver_2_eth_sun8i_emac
 .u_boot_list_2_driver_2_gpio_sunxi
                0x000000004a069da0       0x78 drivers/gpio/built-in.o
                0x000000004a069da0                _u_boot_list_2_driver_2_gpio_sunxi
 .u_boot_list_2_driver_2_i2c_generic_chip_drv
                0x000000004a069e18       0x78 drivers/i2c/built-in.o
                0x000000004a069e18                _u_boot_list_2_driver_2_i2c_generic_chip_drv
 .u_boot_list_2_driver_2_ns16550_serial
                0x000000004a069e90       0x78 drivers/serial/built-in.o
                0x000000004a069e90                _u_boot_list_2_driver_2_ns16550_serial
 .u_boot_list_2_driver_2_root_driver
                0x000000004a069f08       0x78 drivers/built-in.o
                0x000000004a069f08                _u_boot_list_2_driver_2_root_driver
 .u_boot_list_2_driver_2_simple_bus_drv
                0x000000004a069f80       0x78 drivers/built-in.o
                0x000000004a069f80                _u_boot_list_2_driver_2_simple_bus_drv
 .u_boot_list_2_driver_2_simple_panel
                0x000000004a069ff8       0x78 drivers/built-in.o
                0x000000004a069ff8                _u_boot_list_2_driver_2_simple_panel
 .u_boot_list_2_driver_2_sunxi_de2
                0x000000004a06a070       0x78 drivers/built-in.o
                0x000000004a06a070                _u_boot_list_2_driver_2_sunxi_de2
 .u_boot_list_2_driver_2_sunxi_dw_hdmi
                0x000000004a06a0e8       0x78 drivers/built-in.o
                0x000000004a06a0e8                _u_boot_list_2_driver_2_sunxi_dw_hdmi
 .u_boot_list_2_driver_2_sunxi_lcd
                0x000000004a06a160       0x78 drivers/built-in.o
                0x000000004a06a160                _u_boot_list_2_driver_2_sunxi_lcd
 .u_boot_list_2_driver_2_usb_dev_generic_drv
                0x000000004a06a1d8       0x78 drivers/usb/host/built-in.o
                0x000000004a06a1d8                _u_boot_list_2_driver_2_usb_dev_generic_drv
 .u_boot_list_2_driver_2_usb_generic_hub
                0x000000004a06a250       0x78 common/built-in.o
                0x000000004a06a250                _u_boot_list_2_driver_2_usb_generic_hub
 .u_boot_list_2_driver_2_usb_kbd
                0x000000004a06a2c8       0x78 common/built-in.o
                0x000000004a06a2c8                _u_boot_list_2_driver_2_usb_kbd
 .u_boot_list_2_driver_2_usb_mass_storage
                0x000000004a06a340       0x78 common/built-in.o
                0x000000004a06a340                _u_boot_list_2_driver_2_usb_mass_storage
 .u_boot_list_2_driver_2_usb_ohci
                0x000000004a06a3b8       0x78 drivers/usb/host/built-in.o
                0x000000004a06a3b8                _u_boot_list_2_driver_2_usb_ohci
 .u_boot_list_2_driver_2_vidconsole_normal
                0x000000004a06a430       0x78 drivers/built-in.o
                0x000000004a06a430                _u_boot_list_2_driver_2_vidconsole_normal
 .u_boot_list_2_driver_3
                0x000000004a06a4a8        0x0 drivers/built-in.o
 .u_boot_list_2_driver_info_1
                0x000000004a06a4a8        0x0 drivers/built-in.o
 .u_boot_list_2_driver_info_2_sunxi_de2
                0x000000004a06a4a8       0x10 drivers/built-in.o
                0x000000004a06a4a8                _u_boot_list_2_driver_info_2_sunxi_de2
 .u_boot_list_2_driver_info_2_sunxi_dw_hdmi
                0x000000004a06a4b8       0x10 drivers/built-in.o
                0x000000004a06a4b8                _u_boot_list_2_driver_info_2_sunxi_dw_hdmi
 .u_boot_list_2_driver_info_3
                0x000000004a06a4c8        0x0 drivers/built-in.o
 .u_boot_list_2_env_clbk_1
                0x000000004a06a4c8        0x0 env/built-in.o
 .u_boot_list_2_env_clbk_2_baudrate
                0x000000004a06a4c8       0x10 drivers/serial/built-in.o
                0x000000004a06a4c8                _u_boot_list_2_env_clbk_2_baudrate
 .u_boot_list_2_env_clbk_2_bootfile
                0x000000004a06a4d8       0x10 net/built-in.o
                0x000000004a06a4d8                _u_boot_list_2_env_clbk_2_bootfile
 .u_boot_list_2_env_clbk_2_callbacks
                0x000000004a06a4e8       0x10 env/built-in.o
                0x000000004a06a4e8                _u_boot_list_2_env_clbk_2_callbacks
 .u_boot_list_2_env_clbk_2_console
                0x000000004a06a4f8       0x10 common/built-in.o
                0x000000004a06a4f8                _u_boot_list_2_env_clbk_2_console
 .u_boot_list_2_env_clbk_2_ethaddr
                0x000000004a06a508       0x10 net/built-in.o
                0x000000004a06a508                _u_boot_list_2_env_clbk_2_ethaddr
 .u_boot_list_2_env_clbk_2_flags
                0x000000004a06a518       0x10 env/built-in.o
                0x000000004a06a518                _u_boot_list_2_env_clbk_2_flags
 .u_boot_list_2_env_clbk_2_gatewayip
                0x000000004a06a528       0x10 net/built-in.o
                0x000000004a06a528                _u_boot_list_2_env_clbk_2_gatewayip
 .u_boot_list_2_env_clbk_2_ipaddr
                0x000000004a06a538       0x10 net/built-in.o
                0x000000004a06a538                _u_boot_list_2_env_clbk_2_ipaddr
 .u_boot_list_2_env_clbk_2_loadaddr
                0x000000004a06a548       0x10 common/built-in.o
                0x000000004a06a548                _u_boot_list_2_env_clbk_2_loadaddr
 .u_boot_list_2_env_clbk_2_netmask
                0x000000004a06a558       0x10 net/built-in.o
                0x000000004a06a558                _u_boot_list_2_env_clbk_2_netmask
 .u_boot_list_2_env_clbk_2_nvlan
                0x000000004a06a568       0x10 net/built-in.o
                0x000000004a06a568                _u_boot_list_2_env_clbk_2_nvlan
 .u_boot_list_2_env_clbk_2_serverip
                0x000000004a06a578       0x10 net/built-in.o
                0x000000004a06a578                _u_boot_list_2_env_clbk_2_serverip
 .u_boot_list_2_env_clbk_2_vlan
                0x000000004a06a588       0x10 net/built-in.o
                0x000000004a06a588                _u_boot_list_2_env_clbk_2_vlan
 .u_boot_list_2_env_clbk_3
                0x000000004a06a598        0x0 env/built-in.o
 .u_boot_list_2_env_driver_1
                0x000000004a06a598        0x0 env/built-in.o
 .u_boot_list_2_env_driver_2_mmc
                0x000000004a06a598       0x30 env/built-in.o
                0x000000004a06a598                _u_boot_list_2_env_driver_2_mmc
 .u_boot_list_2_env_driver_3
                0x000000004a06a5c8        0x0 env/built-in.o
 .u_boot_list_2_fit_loadable_1
                0x000000004a06a5c8        0x0 common/built-in.o
 .u_boot_list_2_fit_loadable_3
                0x000000004a06a5c8        0x0 common/built-in.o
 .u_boot_list_2_part_driver_1
                0x000000004a06a5c8        0x0 disk/built-in.o
 .u_boot_list_2_part_driver_2_a_efi
                0x000000004a06a5c8       0x28 disk/built-in.o
                0x000000004a06a5c8                _u_boot_list_2_part_driver_2_a_efi
 .u_boot_list_2_part_driver_2_dos
                0x000000004a06a5f0       0x28 disk/built-in.o
                0x000000004a06a5f0                _u_boot_list_2_part_driver_2_dos
 .u_boot_list_2_part_driver_2_iso
                0x000000004a06a618       0x28 disk/built-in.o
                0x000000004a06a618                _u_boot_list_2_part_driver_2_iso
 .u_boot_list_2_part_driver_3
                0x000000004a06a640        0x0 disk/built-in.o
 .u_boot_list_2_uclass_1
                0x000000004a06a640        0x0 drivers/built-in.o
 .u_boot_list_2_uclass_2_backlight
                0x000000004a06a640       0x80 drivers/built-in.o
                0x000000004a06a640                _u_boot_list_2_uclass_2_backlight
 .u_boot_list_2_uclass_2_display
                0x000000004a06a6c0       0x80 drivers/built-in.o
                0x000000004a06a6c0                _u_boot_list_2_uclass_2_display
 .u_boot_list_2_uclass_2_eth
                0x000000004a06a740       0x80 net/built-in.o
                0x000000004a06a740                _u_boot_list_2_uclass_2_eth
 .u_boot_list_2_uclass_2_gpio
                0x000000004a06a7c0       0x80 drivers/gpio/built-in.o
                0x000000004a06a7c0                _u_boot_list_2_uclass_2_gpio
 .u_boot_list_2_uclass_2_i2c
                0x000000004a06a840       0x80 drivers/i2c/built-in.o
                0x000000004a06a840                _u_boot_list_2_uclass_2_i2c
 .u_boot_list_2_uclass_2_i2c_generic
                0x000000004a06a8c0       0x80 drivers/i2c/built-in.o
                0x000000004a06a8c0                _u_boot_list_2_uclass_2_i2c_generic
 .u_boot_list_2_uclass_2_keyboard
                0x000000004a06a940       0x80 drivers/built-in.o
                0x000000004a06a940                _u_boot_list_2_uclass_2_keyboard
 .u_boot_list_2_uclass_2_panel
                0x000000004a06a9c0       0x80 drivers/built-in.o
                0x000000004a06a9c0                _u_boot_list_2_uclass_2_panel
 .u_boot_list_2_uclass_2_root
                0x000000004a06aa40       0x80 drivers/built-in.o
                0x000000004a06aa40                _u_boot_list_2_uclass_2_root
 .u_boot_list_2_uclass_2_serial
                0x000000004a06aac0       0x80 drivers/serial/built-in.o
                0x000000004a06aac0                _u_boot_list_2_uclass_2_serial
 .u_boot_list_2_uclass_2_simple_bus
                0x000000004a06ab40       0x80 drivers/built-in.o
                0x000000004a06ab40                _u_boot_list_2_uclass_2_simple_bus
 .u_boot_list_2_uclass_2_usb
                0x000000004a06abc0       0x80 drivers/usb/host/built-in.o
                0x000000004a06abc0                _u_boot_list_2_uclass_2_usb
 .u_boot_list_2_uclass_2_usb_dev_generic
                0x000000004a06ac40       0x80 drivers/usb/host/built-in.o
                0x000000004a06ac40                _u_boot_list_2_uclass_2_usb_dev_generic
 .u_boot_list_2_uclass_2_usb_hub
                0x000000004a06acc0       0x80 common/built-in.o
                0x000000004a06acc0                _u_boot_list_2_uclass_2_usb_hub
 .u_boot_list_2_uclass_2_usb_mass_storage
                0x000000004a06ad40       0x80 common/built-in.o
                0x000000004a06ad40                _u_boot_list_2_uclass_2_usb_mass_storage
 .u_boot_list_2_uclass_2_vidconsole
                0x000000004a06adc0       0x80 drivers/built-in.o
                0x000000004a06adc0                _u_boot_list_2_uclass_2_vidconsole
 .u_boot_list_2_uclass_2_video
                0x000000004a06ae40       0x80 drivers/built-in.o
                0x000000004a06ae40                _u_boot_list_2_uclass_2_video
 .u_boot_list_2_uclass_3
                0x000000004a06aec0        0x0 drivers/built-in.o
 .u_boot_list_2_usb_driver_entry_1
                0x000000004a06aec0        0x0 drivers/usb/host/built-in.o
 .u_boot_list_2_usb_driver_entry_2_usb_generic_hub
                0x000000004a06aec0       0x10 common/built-in.o
                0x000000004a06aec0                _u_boot_list_2_usb_driver_entry_2_usb_generic_hub
 .u_boot_list_2_usb_driver_entry_2_usb_kbd
                0x000000004a06aed0       0x10 common/built-in.o
                0x000000004a06aed0                _u_boot_list_2_usb_driver_entry_2_usb_kbd
 .u_boot_list_2_usb_driver_entry_2_usb_mass_storage
                0x000000004a06aee0       0x10 common/built-in.o
                0x000000004a06aee0                _u_boot_list_2_usb_driver_entry_2_usb_mass_storage
 .u_boot_list_2_usb_driver_entry_3
                0x000000004a06aef0        0x0 drivers/usb/host/built-in.o
                0x000000004a06aef0                . = ALIGN (0x8)

.efi_runtime    0x000000004a06aef0      0x218
                0x000000004a06aef0                __efi_runtime_start = .
 *(efi_runtime_text)
 efi_runtime_text
                0x000000004a06aef0       0xa8 arch/arm/cpu/armv8/built-in.o
                0x000000004a06aef0                smc_call
                0x000000004a06af34                psci_system_reset
                0x000000004a06af54                psci_system_off
                0x000000004a06af74                efi_reset_system
 efi_runtime_text
                0x000000004a06af98       0x28 lib/built-in.o
                0x000000004a06af9c                efi_get_time
 *(efi_runtime_data)
 efi_runtime_data
                0x000000004a06afc0      0x148 lib/built-in.o
                0x000000004a06afc0                systab
                0x000000004a06b080                efi_runtime_services
                0x000000004a06b108                __efi_runtime_stop = .

.efi_runtime_rel
                0x000000004a06b108      0x1b0
                0x000000004a06b108                __efi_runtime_rel_start = .
 *(.relaefi_runtime_text)
 *(.relaefi_runtime_data)
 .relaefi_runtime_data
                0x000000004a06b108      0x1b0 arch/arm/cpu/armv8/start.o
                0x000000004a06b2b8                __efi_runtime_rel_stop = .
                0x000000004a06b2b8                . = ALIGN (0x8)

.image_copy_end
                0x000000004a06b2b8        0x0
 *(.__image_copy_end)
 .__image_copy_end
                0x000000004a06b2b8        0x0 arch/arm/lib/built-in.o
                0x000000004a06b2b8                . = ALIGN (0x8)

.rel_dyn_start  0x000000004a06b2b8        0x0
 *(.__rel_dyn_start)
 .__rel_dyn_start
                0x000000004a06b2b8        0x0 arch/arm/lib/built-in.o

.rela.dyn       0x000000004a06b2b8     0x97b0
 *(.rela*)
 .rela.got      0x000000004a06b2b8        0x0 arch/arm/cpu/armv8/start.o
 .rela.plt      0x000000004a06b2b8        0x0 arch/arm/cpu/armv8/start.o
 .rela.bss      0x000000004a06b2b8        0x0 arch/arm/cpu/armv8/start.o
 .rela.data.rel.ro
                0x000000004a06b2b8        0x0 arch/arm/cpu/armv8/start.o
 .rela.ifunc    0x000000004a06b2b8        0x0 arch/arm/cpu/armv8/start.o
 .rela.text     0x000000004a06b2b8       0x30 arch/arm/cpu/armv8/start.o
 .rela.data.mem_map
                0x000000004a06b2e8       0x18 arch/arm/cpu/armv8/start.o
 .rela.rodata.op_table
                0x000000004a06b300      0x138 arch/arm/cpu/armv8/start.o
 .rela.rodata.desc_and_len_tbl
                0x000000004a06b438       0x90 arch/arm/cpu/armv8/start.o
 .rela.rodata.reg_0_5_desc_tbl
                0x000000004a06b4c8       0x90 arch/arm/cpu/armv8/start.o
 .rela.rodata.reg_0_desc_tbl
                0x000000004a06b558       0xf0 arch/arm/cpu/armv8/start.o
 .rela.rodata.reg_1_desc_tbl
                0x000000004a06b648      0x180 arch/arm/cpu/armv8/start.o
 .rela.rodata.reg_2_desc_tbl
                0x000000004a06b7c8       0x18 arch/arm/cpu/armv8/start.o
 .rela.rodata.reg_3_desc_tbl
                0x000000004a06b7e0       0x48 arch/arm/cpu/armv8/start.o
 .rela.rodata.reg_4_desc_tbl
                0x000000004a06b828      0x120 arch/arm/cpu/armv8/start.o
 .rela.rodata.reg_5_desc_tbl
                0x000000004a06b948      0x120 arch/arm/cpu/armv8/start.o
 .rela.rodata.keywords
                0x000000004a06ba68      0x1b0 arch/arm/cpu/armv8/start.o
 .rela.rodata.op_adv
                0x000000004a06bc18      0x180 arch/arm/cpu/armv8/start.o
 .rela.rodata.CSWTCH.25
                0x000000004a06bd98       0x78 arch/arm/cpu/armv8/start.o
 .rela.u_boot_list_2_cmd_2_go
                0x000000004a06be10       0x60 arch/arm/cpu/armv8/start.o
 .rela.u_boot_list_2_cmd_2_reset
                0x000000004a06be70       0x60 arch/arm/cpu/armv8/start.o
 .rela.data.cmd_bootm_sub
                0x000000004a06bed0      0x288 arch/arm/cpu/armv8/start.o
 .rela.u_boot_list_2_cmd_2_boot
                0x000000004a06c158       0x60 arch/arm/cpu/armv8/start.o
 .rela.u_boot_list_2_cmd_2_bootd
                0x000000004a06c1b8       0x60 arch/arm/cpu/armv8/start.o
 .rela.u_boot_list_2_cmd_2_bootm
                0x000000004a06c218       0x60 arch/arm/cpu/armv8/start.o
 .rela.u_boot_list_2_cmd_2_iminfo
                0x000000004a06c278       0x60 arch/arm/cpu/armv8/start.o
 .rela.u_boot_list_2_cmd_2_help
                0x000000004a06c2d8       0x60 arch/arm/cpu/armv8/start.o
 .rela.u_boot_list_2_cmd_2_question_mark
                0x000000004a06c338       0x60 arch/arm/cpu/armv8/start.o
 .rela.u_boot_list_2_cmd_2_version
                0x000000004a06c398       0x60 arch/arm/cpu/armv8/start.o
 .rela.u_boot_list_2_cmd_2_source
                0x000000004a06c3f8       0x60 arch/arm/cpu/armv8/start.o
 .rela.u_boot_list_2_cmd_2_bdinfo
                0x000000004a06c458       0x60 arch/arm/cpu/armv8/start.o
 .rela.u_boot_list_2_cmd_2_bootefi
                0x000000004a06c4b8       0x60 arch/arm/cpu/armv8/start.o
 .rela.u_boot_list_2_cmd_2_booti
                0x000000004a06c518       0x60 arch/arm/cpu/armv8/start.o
 .rela.u_boot_list_2_cmd_2_coninfo
                0x000000004a06c578       0x60 arch/arm/cpu/armv8/start.o
 .rela.u_boot_list_2_cmd_2_echo
                0x000000004a06c5d8       0x60 arch/arm/cpu/armv8/start.o
 .rela.u_boot_list_2_cmd_2_bootelf
                0x000000004a06c638       0x60 arch/arm/cpu/armv8/start.o
 .rela.u_boot_list_2_cmd_2_bootvx
                0x000000004a06c698       0x60 arch/arm/cpu/armv8/start.o
 .rela.u_boot_list_2_cmd_2_exit
                0x000000004a06c6f8       0x60 arch/arm/cpu/armv8/start.o
 .rela.u_boot_list_2_cmd_2_ext4load
                0x000000004a06c758       0x60 arch/arm/cpu/armv8/start.o
 .rela.u_boot_list_2_cmd_2_ext4ls
                0x000000004a06c7b8       0x60 arch/arm/cpu/armv8/start.o
 .rela.u_boot_list_2_cmd_2_ext4size
                0x000000004a06c818       0x60 arch/arm/cpu/armv8/start.o
 .rela.u_boot_list_2_cmd_2_ext2load
                0x000000004a06c878       0x60 arch/arm/cpu/armv8/start.o
 .rela.u_boot_list_2_cmd_2_ext2ls
                0x000000004a06c8d8       0x60 arch/arm/cpu/armv8/start.o
 .rela.u_boot_list_2_cmd_2_fatinfo
                0x000000004a06c938       0x60 arch/arm/cpu/armv8/start.o
 .rela.u_boot_list_2_cmd_2_fatload
                0x000000004a06c998       0x60 arch/arm/cpu/armv8/start.o
 .rela.u_boot_list_2_cmd_2_fatls
                0x000000004a06c9f8       0x60 arch/arm/cpu/armv8/start.o
 .rela.u_boot_list_2_cmd_2_fatsize
                0x000000004a06ca58       0x60 arch/arm/cpu/armv8/start.o
 .rela.u_boot_list_2_cmd_2_fatwrite
                0x000000004a06cab8       0x60 arch/arm/cpu/armv8/start.o
 .rela.u_boot_list_2_cmd_2_fdt
                0x000000004a06cb18       0x60 arch/arm/cpu/armv8/start.o
 .rela.u_boot_list_2_cmd_2_fstype
                0x000000004a06cb78       0x60 arch/arm/cpu/armv8/start.o
 .rela.u_boot_list_2_cmd_2_load
                0x000000004a06cbd8       0x60 arch/arm/cpu/armv8/start.o
 .rela.u_boot_list_2_cmd_2_ls
                0x000000004a06cc38       0x60 arch/arm/cpu/armv8/start.o
 .rela.u_boot_list_2_cmd_2_save
                0x000000004a06cc98       0x60 arch/arm/cpu/armv8/start.o
 .rela.u_boot_list_2_cmd_2_size
                0x000000004a06ccf8       0x60 arch/arm/cpu/armv8/start.o
 .rela.u_boot_list_2_cmd_2_gpio
                0x000000004a06cd58       0x60 arch/arm/cpu/armv8/start.o
 .rela.u_boot_list_2_cmd_2_itest
                0x000000004a06cdb8       0x60 arch/arm/cpu/armv8/start.o
 .rela.u_boot_list_2_cmd_2_loadb
                0x000000004a06ce18       0x60 arch/arm/cpu/armv8/start.o
 .rela.u_boot_list_2_cmd_2_loads
                0x000000004a06ce78       0x60 arch/arm/cpu/armv8/start.o
 .rela.u_boot_list_2_cmd_2_loadx
                0x000000004a06ced8       0x60 arch/arm/cpu/armv8/start.o
 .rela.u_boot_list_2_cmd_2_loady
                0x000000004a06cf38       0x60 arch/arm/cpu/armv8/start.o
 .rela.u_boot_list_2_cmd_2_base
                0x000000004a06cf98       0x60 arch/arm/cpu/armv8/start.o
 .rela.u_boot_list_2_cmd_2_cmp
                0x000000004a06cff8       0x60 arch/arm/cpu/armv8/start.o
 .rela.u_boot_list_2_cmd_2_cp
                0x000000004a06d058       0x60 arch/arm/cpu/armv8/start.o
 .rela.u_boot_list_2_cmd_2_crc32
                0x000000004a06d0b8       0x60 arch/arm/cpu/armv8/start.o
 .rela.u_boot_list_2_cmd_2_loop
                0x000000004a06d118       0x60 arch/arm/cpu/armv8/start.o
 .rela.u_boot_list_2_cmd_2_md
                0x000000004a06d178       0x60 arch/arm/cpu/armv8/start.o
 .rela.u_boot_list_2_cmd_2_mm
                0x000000004a06d1d8       0x60 arch/arm/cpu/armv8/start.o
 .rela.u_boot_list_2_cmd_2_mw
                0x000000004a06d238       0x60 arch/arm/cpu/armv8/start.o
 .rela.u_boot_list_2_cmd_2_nm
                0x000000004a06d298       0x60 arch/arm/cpu/armv8/start.o
 .rela.u_boot_list_2_cmd_2_mii
                0x000000004a06d2f8       0x60 arch/arm/cpu/armv8/start.o
 .rela.u_boot_list_2_cmd_2_mdio
                0x000000004a06d358       0x60 arch/arm/cpu/armv8/start.o
 .rela.u_boot_list_2_cmd_2_sleep
                0x000000004a06d3b8       0x60 arch/arm/cpu/armv8/start.o
 .rela.data.cmd_mmc
                0x000000004a06d418      0x3c0 arch/arm/cpu/armv8/start.o
 .rela.u_boot_list_2_cmd_2_mmc
                0x000000004a06d7d8       0x60 arch/arm/cpu/armv8/start.o
 .rela.u_boot_list_2_cmd_2_mmcinfo
                0x000000004a06d838       0x60 arch/arm/cpu/armv8/start.o
 .rela.u_boot_list_2_cmd_2_bootp
                0x000000004a06d898       0x60 arch/arm/cpu/armv8/start.o
 .rela.u_boot_list_2_cmd_2_dhcp
                0x000000004a06d8f8       0x60 arch/arm/cpu/armv8/start.o
 .rela.u_boot_list_2_cmd_2_nfs
                0x000000004a06d958       0x60 arch/arm/cpu/armv8/start.o
 .rela.u_boot_list_2_cmd_2_ping
                0x000000004a06d9b8       0x60 arch/arm/cpu/armv8/start.o
 .rela.u_boot_list_2_cmd_2_tftpboot
                0x000000004a06da18       0x60 arch/arm/cpu/armv8/start.o
 .rela.u_boot_list_2_cmd_2_part
                0x000000004a06da78       0x60 arch/arm/cpu/armv8/start.o
 .rela.data.cmd_pxe_sub
                0x000000004a06dad8       0xc0 arch/arm/cpu/armv8/start.o
 .rela.data.pxe_default_paths
                0x000000004a06db98       0x48 arch/arm/cpu/armv8/start.o
 .rela.u_boot_list_2_cmd_2_pxe
                0x000000004a06dbe0       0x60 arch/arm/cpu/armv8/start.o
 .rela.u_boot_list_2_cmd_2_sysboot
                0x000000004a06dc40       0x60 arch/arm/cpu/armv8/start.o
 .rela.u_boot_list_2_cmd_2_setexpr
                0x000000004a06dca0       0x60 arch/arm/cpu/armv8/start.o
 .rela.u_boot_list_2_cmd_2_false
                0x000000004a06dd00       0x48 arch/arm/cpu/armv8/start.o
 .rela.u_boot_list_2_cmd_2_test
                0x000000004a06dd48       0x60 arch/arm/cpu/armv8/start.o
 .rela.u_boot_list_2_cmd_2_true
                0x000000004a06dda8       0x48 arch/arm/cpu/armv8/start.o
 .rela.u_boot_list_2_cmd_2_gzwrite
                0x000000004a06ddf0       0x60 arch/arm/cpu/armv8/start.o
 .rela.u_boot_list_2_cmd_2_unzip
                0x000000004a06de50       0x60 arch/arm/cpu/armv8/start.o
 .rela.u_boot_list_2_cmd_2_lzmadec
                0x000000004a06deb0       0x60 arch/arm/cpu/armv8/start.o
 .rela.u_boot_list_2_cmd_2_usb
                0x000000004a06df10       0x60 arch/arm/cpu/armv8/start.o
 .rela.u_boot_list_2_cmd_2_usbboot
                0x000000004a06df70       0x60 arch/arm/cpu/armv8/start.o
 .rela.u_boot_list_2_cmd_2_imxtract
                0x000000004a06dfd0       0x60 arch/arm/cpu/armv8/start.o
 .rela.u_boot_list_2_cmd_2_gpt
                0x000000004a06e030       0x60 arch/arm/cpu/armv8/start.o
 .rela.data.cmd_env_sub
                0x000000004a06e090      0x3c0 arch/arm/cpu/armv8/start.o
 .rela.u_boot_list_2_cmd_2_editenv
                0x000000004a06e450       0x78 arch/arm/cpu/armv8/start.o
 .rela.u_boot_list_2_cmd_2_env
                0x000000004a06e4c8       0x60 arch/arm/cpu/armv8/start.o
 .rela.u_boot_list_2_cmd_2_printenv
                0x000000004a06e528       0x78 arch/arm/cpu/armv8/start.o
 .rela.u_boot_list_2_cmd_2_run
                0x000000004a06e5a0       0x78 arch/arm/cpu/armv8/start.o
 .rela.u_boot_list_2_cmd_2_saveenv
                0x000000004a06e618       0x60 arch/arm/cpu/armv8/start.o
 .rela.u_boot_list_2_cmd_2_setenv
                0x000000004a06e678       0x78 arch/arm/cpu/armv8/start.o
 .rela.rodata.init_sequence_f
                0x000000004a06e6f0      0x3c0 arch/arm/cpu/armv8/start.o
 .rela.rodata.boot_os
                0x000000004a06eab0       0xa8 arch/arm/cpu/armv8/start.o
 .rela.rodata.usb_hub_ids
                0x000000004a06eb58       0x18 arch/arm/cpu/armv8/start.o
 .rela.rodata.usb_mass_storage_ids
                0x000000004a06eb70       0x18 arch/arm/cpu/armv8/start.o
 .rela.rodata.usb_kbd_ids
                0x000000004a06eb88       0x18 arch/arm/cpu/armv8/start.o
 .rela.rodata.table_info
                0x000000004a06eba0        0x0 arch/arm/cpu/armv8/start.o
 .rela.rodata.uimage_arch
                0x000000004a06eba0      0x4e0 arch/arm/cpu/armv8/start.o
 .rela.rodata.uimage_comp
                0x000000004a06f080      0x150 arch/arm/cpu/armv8/start.o
 .rela.rodata.uimage_os
                0x000000004a06f1d0      0x1e0 arch/arm/cpu/armv8/start.o
 .rela.rodata.uimage_type
                0x000000004a06f3b0      0x630 arch/arm/cpu/armv8/start.o
 .rela.rodata.CSWTCH.105
                0x000000004a06f9e0      0x288 arch/arm/cpu/armv8/start.o
 .rela.rodata.CSWTCH.24
                0x000000004a06fc68       0xc0 arch/arm/cpu/armv8/start.o
 .rela.data.hash_algo
                0x000000004a06fd28      0x168 arch/arm/cpu/armv8/start.o
 .rela.data.reserved_list
                0x000000004a06fe90      0x108 arch/arm/cpu/armv8/start.o
 .rela.u_boot_list_2_cmd_2_showvar
                0x000000004a06ff98       0x60 arch/arm/cpu/armv8/start.o
 .rela.data.init_sequence_r
                0x000000004a06fff8      0x2a0 arch/arm/cpu/armv8/start.o
 .rela.data.of_busses
                0x000000004a070298       0x78 arch/arm/cpu/armv8/start.o
 .rela.data.usb_scan_list
                0x000000004a070310       0x30 arch/arm/cpu/armv8/start.o
 .rela.u_boot_list_2_driver_2_usb_generic_hub
                0x000000004a070340       0x30 arch/arm/cpu/armv8/start.o
 .rela.u_boot_list_2_uclass_2_usb_hub
                0x000000004a070370       0x60 arch/arm/cpu/armv8/start.o
 .rela.u_boot_list_2_usb_driver_entry_2_usb_generic_hub
                0x000000004a0703d0       0x30 arch/arm/cpu/armv8/start.o
 .rela.u_boot_list_2_blk_driver_2_usb
                0x000000004a070400       0x30 arch/arm/cpu/armv8/start.o
 .rela.u_boot_list_2_driver_2_usb_mass_storage
                0x000000004a070430       0x48 arch/arm/cpu/armv8/start.o
 .rela.u_boot_list_2_uclass_2_usb_mass_storage
                0x000000004a070478       0x18 arch/arm/cpu/armv8/start.o
 .rela.u_boot_list_2_usb_driver_entry_2_usb_mass_storage
                0x000000004a070490       0x30 arch/arm/cpu/armv8/start.o
 .rela.u_boot_list_2_driver_2_usb_kbd
                0x000000004a0704c0       0x60 arch/arm/cpu/armv8/start.o
 .rela.u_boot_list_2_usb_driver_entry_2_usb_kbd
                0x000000004a070520       0x30 arch/arm/cpu/armv8/start.o
 .rela.u_boot_list_2_env_clbk_2_console
                0x000000004a070550       0x30 arch/arm/cpu/armv8/start.o
 .rela.data.av_
                0x000000004a070580     0x1800 arch/arm/cpu/armv8/start.o
 .rela.u_boot_list_2_env_clbk_2_loadaddr
                0x000000004a071d80       0x30 arch/arm/cpu/armv8/start.o
 .rela.data.stdio_names
                0x000000004a071db0       0x48 arch/arm/cpu/armv8/start.o
 .rela.rodata.CSWTCH.45
                0x000000004a071df8       0xc0 arch/arm/cpu/armv8/start.o
 .rela.u_boot_list_2_part_driver_2_dos
                0x000000004a071eb8       0x60 arch/arm/cpu/armv8/start.o
 .rela.u_boot_list_2_part_driver_2_iso
                0x000000004a071f18       0x60 arch/arm/cpu/armv8/start.o
 .rela.u_boot_list_2_part_driver_2_a_efi
                0x000000004a071f78       0x60 arch/arm/cpu/armv8/start.o
 .rela.rodata.root_info
                0x000000004a071fd8       0x18 arch/arm/cpu/armv8/start.o
 .rela.rodata.generic_simple_bus_ids
                0x000000004a071ff0       0x30 arch/arm/cpu/armv8/start.o
 .rela.rodata.sunxi_mmc_ops
                0x000000004a072020       0x60 arch/arm/cpu/armv8/start.o
 .rela.rodata.simple_panel_ids
                0x000000004a072080       0x60 arch/arm/cpu/armv8/start.o
 .rela.rodata.simple_panel_ops
                0x000000004a0720e0       0x18 arch/arm/cpu/armv8/start.o
 .rela.rodata.sunxi_dw_hdmi_ops
                0x000000004a0720f8       0x30 arch/arm/cpu/armv8/start.o
 .rela.rodata.sunxi_lcd_ops
                0x000000004a072128       0x30 arch/arm/cpu/armv8/start.o
 .rela.rodata.kbd_to_ansi364
                0x000000004a072158        0x0 arch/arm/cpu/armv8/start.o
 .rela.u_boot_list_2_driver_2_root_driver
                0x000000004a072158       0x18 arch/arm/cpu/armv8/start.o
 .rela.u_boot_list_2_uclass_2_root
                0x000000004a072170       0x18 arch/arm/cpu/armv8/start.o
 .rela.u_boot_list_2_driver_2_simple_bus_drv
                0x000000004a072188       0x30 arch/arm/cpu/armv8/start.o
 .rela.u_boot_list_2_uclass_2_simple_bus
                0x000000004a0721b8       0x30 arch/arm/cpu/armv8/start.o
 .rela.u_boot_list_2_blk_driver_2_mmc
                0x000000004a0721e8       0x48 arch/arm/cpu/armv8/start.o
 .rela.u_boot_list_2_uclass_2_display
                0x000000004a072230       0x18 arch/arm/cpu/armv8/start.o
 .rela.u_boot_list_2_uclass_2_backlight
                0x000000004a072248       0x18 arch/arm/cpu/armv8/start.o
 .rela.u_boot_list_2_uclass_2_panel
                0x000000004a072260       0x18 arch/arm/cpu/armv8/start.o
 .rela.u_boot_list_2_driver_2_simple_panel
                0x000000004a072278       0x78 arch/arm/cpu/armv8/start.o
 .rela.u_boot_list_2_uclass_2_video
                0x000000004a0722f0       0x78 arch/arm/cpu/armv8/start.o
 .rela.u_boot_list_2_cmd_2_lcdputs
                0x000000004a072368       0x60 arch/arm/cpu/armv8/start.o
 .rela.u_boot_list_2_cmd_2_setcurs
                0x000000004a0723c8       0x60 arch/arm/cpu/armv8/start.o
 .rela.u_boot_list_2_uclass_2_vidconsole
                0x000000004a072428       0x48 arch/arm/cpu/armv8/start.o
 .rela.data.console_normal_ops
                0x000000004a072470       0x48 arch/arm/cpu/armv8/start.o
 .rela.u_boot_list_2_driver_2_vidconsole_normal
                0x000000004a0724b8       0x48 arch/arm/cpu/armv8/start.o
 .rela.u_boot_list_2_driver_2_sunxi_de2
                0x000000004a072500       0x60 arch/arm/cpu/armv8/start.o
 .rela.u_boot_list_2_driver_info_2_sunxi_de2
                0x000000004a072560       0x18 arch/arm/cpu/armv8/start.o
 .rela.u_boot_list_2_driver_2_sunxi_dw_hdmi
                0x000000004a072578       0x48 arch/arm/cpu/armv8/start.o
 .rela.u_boot_list_2_driver_info_2_sunxi_dw_hdmi
                0x000000004a0725c0       0x18 arch/arm/cpu/armv8/start.o
 .rela.u_boot_list_2_driver_2_sunxi_lcd
                0x000000004a0725d8       0x48 arch/arm/cpu/armv8/start.o
 .rela.u_boot_list_2_uclass_2_keyboard
                0x000000004a072620       0x30 arch/arm/cpu/armv8/start.o
 .rela.data.kbd_entry
                0x000000004a072650        0x0 arch/arm/cpu/armv8/start.o
 .rela.rodata.gpio_function
                0x000000004a072650       0x78 arch/arm/cpu/armv8/start.o
 .rela.rodata.gpio_sunxi_ops
                0x000000004a0726c8       0x90 arch/arm/cpu/armv8/start.o
 .rela.rodata.sunxi_gpio_ids
                0x000000004a072758      0x330 arch/arm/cpu/armv8/start.o
 .rela.u_boot_list_2_uclass_2_gpio
                0x000000004a072a88       0x48 arch/arm/cpu/armv8/start.o
 .rela.u_boot_list_2_driver_2_gpio_sunxi
                0x000000004a072ad0       0x78 arch/arm/cpu/armv8/start.o
 .rela.u_boot_list_2_driver_2_i2c_generic_chip_drv
                0x000000004a072b48       0x18 arch/arm/cpu/armv8/start.o
 .rela.u_boot_list_2_uclass_2_i2c
                0x000000004a072b60       0x60 arch/arm/cpu/armv8/start.o
 .rela.u_boot_list_2_uclass_2_i2c_generic
                0x000000004a072bc0       0x18 arch/arm/cpu/armv8/start.o
 .rela.rodata.sun8i_emac_eth_ids
                0x000000004a072bd8       0x48 arch/arm/cpu/armv8/start.o
 .rela.rodata.sun8i_emac_eth_ops
                0x000000004a072c20       0x90 arch/arm/cpu/armv8/start.o
 .rela.u_boot_list_2_driver_2_eth_sun8i_emac
                0x000000004a072cb0       0x78 arch/arm/cpu/armv8/start.o
 .rela.rodata.phy_interface_strings
                0x000000004a072d28      0x198 arch/arm/cpu/armv8/start.o
 .rela.data.genphy_driver
                0x000000004a072ec0       0x60 arch/arm/cpu/armv8/start.o
 .rela.data.phy_drivers
                0x000000004a072f20       0x30 arch/arm/cpu/armv8/start.o
 .rela.rodata.ns16550_serial_ids
                0x000000004a072f50      0x108 arch/arm/cpu/armv8/start.o
 .rela.rodata.ns16550_serial_ops
                0x000000004a073058       0x60 arch/arm/cpu/armv8/start.o
 .rela.u_boot_list_2_env_clbk_2_baudrate
                0x000000004a0730b8       0x30 arch/arm/cpu/armv8/start.o
 .rela.u_boot_list_2_uclass_2_serial
                0x000000004a0730e8       0x48 arch/arm/cpu/armv8/start.o
 .rela.u_boot_list_2_driver_2_ns16550_serial
                0x000000004a073130       0x78 arch/arm/cpu/armv8/start.o
 .rela.rodata.usb_dr_modes
                0x000000004a0731a8        0x0 arch/arm/cpu/armv8/start.o
 .rela.rodata.cc_to_string
                0x000000004a0731a8      0x180 arch/arm/cpu/armv8/start.o
 .rela.rodata.ohci_usb_ids
                0x000000004a073328       0xd8 arch/arm/cpu/armv8/start.o
 .rela.rodata.ehci_usb_ids
                0x000000004a073400       0xd8 arch/arm/cpu/armv8/start.o
 .rela.u_boot_list_2_driver_2_usb_dev_generic_drv
                0x000000004a0734d8       0x18 arch/arm/cpu/armv8/start.o
 .rela.u_boot_list_2_uclass_2_usb
                0x000000004a0734f0       0x60 arch/arm/cpu/armv8/start.o
 .rela.u_boot_list_2_uclass_2_usb_dev_generic
                0x000000004a073550       0x18 arch/arm/cpu/armv8/start.o
 .rela.data.ohci_usb_ops
                0x000000004a073568       0x90 arch/arm/cpu/armv8/start.o
 .rela.u_boot_list_2_driver_2_usb_ohci
                0x000000004a0735f8       0x78 arch/arm/cpu/armv8/start.o
 .rela.data.ehci_usb_ops
                0x000000004a073670       0xa8 arch/arm/cpu/armv8/start.o
 .rela.u_boot_list_2_driver_2_ehci_sunxi
                0x000000004a073718       0x78 arch/arm/cpu/armv8/start.o
 .rela.data.env_htab
                0x000000004a073790       0x18 arch/arm/cpu/armv8/start.o
 .rela.u_boot_list_2_env_clbk_2_callbacks
                0x000000004a0737a8       0x30 arch/arm/cpu/armv8/start.o
 .rela.u_boot_list_2_env_clbk_2_flags
                0x000000004a0737d8       0x30 arch/arm/cpu/armv8/start.o
 .rela.u_boot_list_2_env_driver_2_mmc
                0x000000004a073808       0x48 arch/arm/cpu/armv8/start.o
 .rela.data.fstypes
                0x000000004a073850      0x300 arch/arm/cpu/armv8/start.o
 .rela.rodata.efi_boot_services
                0x000000004a073b50      0x3f0 arch/arm/cpu/armv8/start.o
 .rela.rodata.efi_runtime_detach_list
                0x000000004a073f40      0x180 arch/arm/cpu/armv8/start.o
 .rela.rodata.efi_con_out
                0x000000004a0740c0       0xf0 arch/arm/cpu/armv8/start.o
 .rela.rodata.efi_console_control
                0x000000004a0741b0       0x48 arch/arm/cpu/armv8/start.o
 .rela.rodata.efi_device_path_to_text
                0x000000004a0741f8       0x30 arch/arm/cpu/armv8/start.o
 .rela.rodata.efi_file_handle_protocol
                0x000000004a074228       0xf0 arch/arm/cpu/armv8/start.o
 .rela.rodata.fdt_errtable
                0x000000004a074318      0x198 arch/arm/cpu/armv8/start.o
 .rela.rodata.smbios_write_funcs
                0x000000004a0744b0       0xa8 arch/arm/cpu/armv8/start.o
 .rela.rodata.z_errmsg
                0x000000004a074558        0x0 arch/arm/cpu/armv8/start.o
 .rela.rodata.compat_names
                0x000000004a074558        0x0 arch/arm/cpu/armv8/start.o
 .rela.data.efi_obj_list
                0x000000004a074558       0x30 arch/arm/cpu/armv8/start.o
 .rela.data.efi_runtime_mmio
                0x000000004a074588       0x30 arch/arm/cpu/armv8/start.o
 .rela.data.efi_con_in
                0x000000004a0745b8       0x30 arch/arm/cpu/armv8/start.o
 .rela.data.efi_console_control_obj
                0x000000004a0745e8       0x48 arch/arm/cpu/armv8/start.o
 .rela.data.efi_console_input_obj
                0x000000004a074630       0x48 arch/arm/cpu/armv8/start.o
 .rela.data.efi_console_output_obj
                0x000000004a074678       0x48 arch/arm/cpu/armv8/start.o
 .rela.data.efi_mem
                0x000000004a0746c0       0x30 arch/arm/cpu/armv8/start.o
 .rela.data.current
                0x000000004a0746f0        0x0 arch/arm/cpu/armv8/start.o
 .rela.u_boot_list_2_env_clbk_2_ethaddr
                0x000000004a0746f0       0x30 arch/arm/cpu/armv8/start.o
 .rela.u_boot_list_2_uclass_2_eth
                0x000000004a074720       0x78 arch/arm/cpu/armv8/start.o
 .rela.u_boot_list_2_env_clbk_2_bootfile
                0x000000004a074798       0x30 arch/arm/cpu/armv8/start.o
 .rela.u_boot_list_2_env_clbk_2_gatewayip
                0x000000004a0747c8       0x30 arch/arm/cpu/armv8/start.o
 .rela.u_boot_list_2_env_clbk_2_ipaddr
                0x000000004a0747f8       0x30 arch/arm/cpu/armv8/start.o
 .rela.u_boot_list_2_env_clbk_2_netmask
                0x000000004a074828       0x30 arch/arm/cpu/armv8/start.o
 .rela.u_boot_list_2_env_clbk_2_nvlan
                0x000000004a074858       0x30 arch/arm/cpu/armv8/start.o
 .rela.u_boot_list_2_env_clbk_2_serverip
                0x000000004a074888       0x30 arch/arm/cpu/armv8/start.o
 .rela.u_boot_list_2_env_clbk_2_vlan
                0x000000004a0748b8       0x30 arch/arm/cpu/armv8/start.o
 .rela.data.test_commands
                0x000000004a0748e8      0x120 arch/arm/cpu/armv8/start.o
 .rela.u_boot_list_2_cmd_2_dm
                0x000000004a074a08       0x60 arch/arm/cpu/armv8/start.o

.rel_dyn_end    0x000000004a074a68        0x0
 *(.__rel_dyn_end)
 .__rel_dyn_end
                0x000000004a074a68        0x0 arch/arm/lib/built-in.o
                0x000000004a074a68                _end = .
                0x000000004a074a68                . = ALIGN (0x8)

.bss_start      0x000000004a074a68        0x0
 *(.__bss_start)
 .__bss_start   0x000000004a074a68        0x0 arch/arm/lib/built-in.o
                0x000000004a074a68                __bss_start

.bss            0x000000004a074a80    0x3b9c0
 *(.bss*)
 .bss.params    0x000000004a074a80        0x8 arch/arm/lib/built-in.o
 .bss.initial_usb_scan_delay
                0x000000004a074a88        0x4 arch/arm/mach-sunxi/built-in.o
 *fill*         0x000000004a074a8c        0x4 
 .bss.bootefi_device_path
                0x000000004a074a90        0x8 cmd/built-in.o
 .bss.bootefi_image_path
                0x000000004a074a98        0x8 cmd/built-in.o
 .bss.efi_obj_list_initalized
                0x000000004a074aa0        0x1 cmd/built-in.o
 *fill*         0x000000004a074aa1        0x3 
 .bss.data.6771
                0x000000004a074aa4      0x400 cmd/built-in.o
 *fill*         0x000000004a074ea4        0x4 
 .bss.working_fdt
                0x000000004a074ea8        0x8 cmd/built-in.o
                0x000000004a074ea8                working_fdt
 .bss.a_b       0x000000004a074eb0       0x18 cmd/built-in.o
 .bss.bin_start_address
                0x000000004a074ec8        0x8 cmd/built-in.o
 .bss.his_eol   0x000000004a074ed0        0x1 cmd/built-in.o
 .bss.his_pad_char
                0x000000004a074ed1        0x1 cmd/built-in.o
 *fill*         0x000000004a074ed2        0x2 
 .bss.his_pad_count
                0x000000004a074ed4        0x4 cmd/built-in.o
 .bss.his_quote
                0x000000004a074ed8        0x1 cmd/built-in.o
 *fill*         0x000000004a074ed9        0x3 
 .bss.k_data_escape
                0x000000004a074edc        0x4 cmd/built-in.o
 .bss.k_data_escape_saved
                0x000000004a074ee0        0x4 cmd/built-in.o
 *fill*         0x000000004a074ee4        0x4 
 .bss.os_data_addr
                0x000000004a074ee8        0x8 cmd/built-in.o
 .bss.os_data_addr_saved
                0x000000004a074ef0        0x8 cmd/built-in.o
 .bss.os_data_char
                0x000000004a074ef8        0x8 cmd/built-in.o
 .bss.os_data_init
                0x000000004a074f00        0x8 cmd/built-in.o
 .bss.os_data_state
                0x000000004a074f08        0x4 cmd/built-in.o
 .bss.os_data_state_saved
                0x000000004a074f0c        0x4 cmd/built-in.o
 .bss.send_parms
                0x000000004a074f10       0x14 cmd/built-in.o
 *fill*         0x000000004a074f24        0x4 
 .bss.send_ptr  0x000000004a074f28        0x8 cmd/built-in.o
 .bss.base_address
                0x000000004a074f30        0x8 cmd/built-in.o
 .bss.dp_last_addr
                0x000000004a074f38        0x8 cmd/built-in.o
 .bss.dp_last_size
                0x000000004a074f40        0x8 cmd/built-in.o
 .bss.mm_last_addr
                0x000000004a074f48        0x8 cmd/built-in.o
 .bss.mm_last_size
                0x000000004a074f50        0x8 cmd/built-in.o
 .bss.last_addr_hi
                0x000000004a074f58        0x8 cmd/built-in.o
 .bss.last_addr_lo
                0x000000004a074f60        0x8 cmd/built-in.o
 .bss.last_data
                0x000000004a074f68        0x8 cmd/built-in.o
 .bss.last_mask
                0x000000004a074f70        0x4 cmd/built-in.o
 *fill*         0x000000004a074f74        0x4 
 .bss.last_op   0x000000004a074f78        0xa cmd/built-in.o
 *fill*         0x000000004a074f82        0x2 
 .bss.last_reg_hi
                0x000000004a074f84        0x8 cmd/built-in.o
 .bss.last_reg_lo
                0x000000004a074f8c        0x8 cmd/built-in.o
 .bss.last_devad_hi
                0x000000004a074f94        0x4 cmd/built-in.o
 .bss.last_devad_lo
                0x000000004a074f98        0x4 cmd/built-in.o
 *fill*         0x000000004a074f9c        0x4 
 .bss.do_getfile
                0x000000004a074fa0        0x8 cmd/built-in.o
 .bss.fs_argv   0x000000004a074fa8       0x28 cmd/built-in.o
 .bss.is_pxe    0x000000004a074fd0        0x1 cmd/built-in.o
 *fill*         0x000000004a074fd1        0x7 
 .bss.buf.7189  0x000000004a074fd8       0x28 common/built-in.o
 .bss.do_repeat
                0x000000004a075000        0x4 common/built-in.o
 .bss.flag_repeat
                0x000000004a075004        0x4 common/built-in.o
 .bss.ifs       0x000000004a075008        0x8 common/built-in.o
 .bss.last_return_code
                0x000000004a075010        0x4 common/built-in.o
 *fill*         0x000000004a075014        0x4 
 .bss.map       0x000000004a075018      0x100 common/built-in.o
 .bss.the_command.6989
                0x000000004a075118      0x401 common/built-in.o
 *fill*         0x000000004a075519        0x7 
 .bss.top_vars  0x000000004a075520        0x8 common/built-in.o
 .bss.stored_bootdelay
                0x000000004a075528        0x4 common/built-in.o
 *fill*         0x000000004a07552c        0x4 
 .bss.monitor_flash_len
                0x000000004a075530        0x8 common/built-in.o
                0x000000004a075530                monitor_flash_len
 .bss.images    0x000000004a075538      0x280 common/built-in.o
                0x000000004a075538                images
 .bss.current_mii
                0x000000004a0757b8        0x8 common/built-in.o
 .bss.mii_devs  0x000000004a0757c0       0x10 common/built-in.o
 .bss.usb_started
                0x000000004a0757d0        0x1 common/built-in.o
                0x000000004a0757d0                usb_started
 *fill*         0x000000004a0757d1        0x3 
 .bss.running.9127
                0x000000004a0757d4        0x4 common/built-in.o
 .bss.CBWTag    0x000000004a0757d8        0x4 common/built-in.o
 *fill*         0x000000004a0757dc       0x24 
 .bss.usb_ccb   0x000000004a075800      0x100 common/built-in.o
 .bss.usb_dev_desc
                0x000000004a075900      0x460 common/built-in.o
 .bss.usb_max_devs
                0x000000004a075d60        0x4 common/built-in.o
 *fill*         0x000000004a075d64        0x4 
 .bss.usb_stor  0x000000004a075d68      0x230 common/built-in.o
 .bss.kbd_testc_tms
                0x000000004a075f98        0x8 common/built-in.o
 .bss.console_buffer
                0x000000004a075fa0      0x401 common/built-in.o
                0x000000004a075fa0                console_buffer
 *fill*         0x000000004a0763a1        0x3 
 .bss.hist_add_idx
                0x000000004a0763a4        0x4 common/built-in.o
 .bss.hist_lines
                0x000000004a0763a8     0x5014 common/built-in.o
 *fill*         0x000000004a07b3bc        0x4 
 .bss.hist_list
                0x000000004a07b3c0       0xa0 common/built-in.o
 .bss.hist_max  0x000000004a07b460        0x4 common/built-in.o
 .bss.hist_num  0x000000004a07b464        0x4 common/built-in.o
 .bss.initted.6783
                0x000000004a07b468        0x4 common/built-in.o
 *fill*         0x000000004a07b46c        0x4 
 .bss.cd_count  0x000000004a07b470        0xc common/built-in.o
                0x000000004a07b470                cd_count
 *fill*         0x000000004a07b47c        0x4 
 .bss.console_devices
                0x000000004a07b480       0x18 common/built-in.o
                0x000000004a07b480                console_devices
 .bss.ctrlc_disabled
                0x000000004a07b498        0x4 common/built-in.o
 .bss.ctrlc_was_pressed
                0x000000004a07b49c        0x4 common/built-in.o
 .bss.tstcdev   0x000000004a07b4a0        0x8 common/built-in.o
 .bss.current_mallinfo
                0x000000004a07b4a8       0x28 common/built-in.o
 .bss.max_sbrked_mem
                0x000000004a07b4d0        0x8 common/built-in.o
 .bss.max_total_mem
                0x000000004a07b4d8        0x8 common/built-in.o
 .bss.mem_malloc_brk
                0x000000004a07b4e0        0x8 common/built-in.o
                0x000000004a07b4e0                mem_malloc_brk
 .bss.mem_malloc_end
                0x000000004a07b4e8        0x8 common/built-in.o
                0x000000004a07b4e8                mem_malloc_end
 .bss.mem_malloc_start
                0x000000004a07b4f0        0x8 common/built-in.o
                0x000000004a07b4f0                mem_malloc_start
 .bss.top_pad   0x000000004a07b4f8        0x8 common/built-in.o
 .bss.devs      0x000000004a07b500       0x70 common/built-in.o
 .bss.stdio_devices
                0x000000004a07b570       0x18 common/built-in.o
                0x000000004a07b570                stdio_devices
 .bss.tmp_buf   0x000000004a07b588      0x400 common/built-in.o
 .bss.tmp_buf.6748
                0x000000004a07b988      0x200 common/built-in.o
 .bss.xyz       0x000000004a07bb88      0x448 common/built-in.o
 *fill*         0x000000004a07bfd0       0x30 
 .bss.tmpbuf    0x000000004a07c000      0x800 disk/built-in.o
 .bss.name.7386
                0x000000004a07c800       0x25 disk/built-in.o
 *fill*         0x000000004a07c825        0x3 
 .bss.initialized.8859
                0x000000004a07c828        0x4 drivers/built-in.o
 *fill*         0x000000004a07c82c        0x4 
 .bss.mmc_devices
                0x000000004a07c830       0x10 drivers/built-in.o
 .bss.mmc_host  0x000000004a07c840      0x180 drivers/built-in.o
                0x000000004a07c840                mmc_host
 .bss.asynch_allowed
                0x000000004a07c9c0        0x1 drivers/usb/host/built-in.o
 *fill*         0x000000004a07c9c1        0x7 
 .bss.callback_list
                0x000000004a07c9c8        0x8 env/built-in.o
 .bss.flags_list
                0x000000004a07c9d0        0x8 env/built-in.o
 .bss.fs_dev_desc
                0x000000004a07c9d8        0x8 fs/built-in.o
 .bss.fs_dev_part
                0x000000004a07c9e0        0x4 fs/built-in.o
 *fill*         0x000000004a07c9e4        0x4 
 .bss.fs_partition
                0x000000004a07c9e8       0x88 fs/built-in.o
 .bss.fs_type   0x000000004a07ca70        0x4 fs/built-in.o
 *fill*         0x000000004a07ca74        0x4 
 .bss.ext_fs    0x000000004a07ca78       0x68 fs/built-in.o
                0x000000004a07ca78                ext_fs
 .bss.ext4fs_file
                0x000000004a07cae0        0x8 fs/built-in.o
                0x000000004a07cae0                ext4fs_file
 .bss.ext4fs_indir1_block
                0x000000004a07cae8        0x8 fs/built-in.o
                0x000000004a07cae8                ext4fs_indir1_block
 .bss.ext4fs_indir1_size
                0x000000004a07caf0        0x4 fs/built-in.o
                0x000000004a07caf0                ext4fs_indir1_size
 *fill*         0x000000004a07caf4        0x4 
 .bss.ext4fs_indir2_block
                0x000000004a07caf8        0x8 fs/built-in.o
                0x000000004a07caf8                ext4fs_indir2_block
 .bss.ext4fs_indir2_size
                0x000000004a07cb00        0x4 fs/built-in.o
                0x000000004a07cb00                ext4fs_indir2_size
 *fill*         0x000000004a07cb04        0x4 
 .bss.ext4fs_indir3_block
                0x000000004a07cb08        0x8 fs/built-in.o
                0x000000004a07cb08                ext4fs_indir3_block
 .bss.ext4fs_indir3_size
                0x000000004a07cb10        0x4 fs/built-in.o
                0x000000004a07cb10                ext4fs_indir3_size
 *fill*         0x000000004a07cb14        0x4 
 .bss.ext4fs_root
                0x000000004a07cb18        0x8 fs/built-in.o
                0x000000004a07cb18                ext4fs_root
 .bss.symlinknest
                0x000000004a07cb20        0x4 fs/built-in.o
 *fill*         0x000000004a07cb24        0x4 
 .bss.part_info
                0x000000004a07cb28        0x8 fs/built-in.o
 .bss.part_offset
                0x000000004a07cb30        0x8 fs/built-in.o
                0x000000004a07cb30                part_offset
 .bss.cur_dev   0x000000004a07cb38        0x8 fs/built-in.o
 .bss.cur_part_info
                0x000000004a07cb40       0x88 fs/built-in.o
 .bss.dir_curclust
                0x000000004a07cbc8        0x4 fs/built-in.o
 *fill*         0x000000004a07cbcc       0x34 
 .bss.do_fat_read_at_block
                0x000000004a07cc00    0x10000 fs/built-in.o
                0x000000004a07cc00                do_fat_read_at_block
 .bss.empty_dentptr
                0x000000004a08cc00        0x8 fs/built-in.o
 *fill*         0x000000004a08cc08       0x38 
 .bss.get_contents_vfatname_block
                0x000000004a08cc40    0x10000 fs/built-in.o
                0x000000004a08cc40                get_contents_vfatname_block
 .bss.get_dentfromdir_block
                0x000000004a09cc40    0x10000 fs/built-in.o
                0x000000004a09cc40                get_dentfromdir_block
 .bss.num_of_fats
                0x000000004a0acc40        0x1 fs/built-in.o
 *fill*         0x000000004a0acc41        0x3 
 .bss.total_sector
                0x000000004a0acc44        0x4 fs/built-in.o
 .bss.app_gd    0x000000004a0acc48        0x8 lib/built-in.o
 .bss.efi_events
                0x000000004a0acc50      0x380 lib/built-in.o
 .bss.efi_gd    0x000000004a0acfd0        0x8 lib/built-in.o
 .bss.entry_count
                0x000000004a0acfd8        0x4 lib/built-in.o
 *fill*         0x000000004a0acfdc        0x4 
 .bss.mono.8467
                0x000000004a0acfe0        0x8 lib/built-in.o
 .bss.nesting_level
                0x000000004a0acfe8        0x4 lib/built-in.o
 *fill*         0x000000004a0acfec        0x4 
 .bss.ret.8378  0x000000004a0acff0        0x8 lib/built-in.o
 .bss.console_size_queried
                0x000000004a0acff8        0x1 lib/built-in.o
 *fill*         0x000000004a0acff9        0x7 
 .bss.console_timer_event
                0x000000004a0ad000        0x8 lib/built-in.o
 .bss.rs        0x000000004a0ad008        0x8 lib/built-in.o
 .bss.dhcp_ack  0x000000004a0ad010        0x8 lib/built-in.o
 .bss.network_timer_event
                0x000000004a0ad018        0x8 lib/built-in.o
 .bss.new_rx_packet
                0x000000004a0ad020        0x1 lib/built-in.o
 *fill*         0x000000004a0ad021        0x7 
 .bss.new_tx_packet
                0x000000004a0ad028        0x8 lib/built-in.o
 .bss.wait_for_packet
                0x000000004a0ad030        0x8 lib/built-in.o
 .bss.errno     0x000000004a0ad038        0x4 lib/built-in.o
                0x000000004a0ad038                errno
 *fill*         0x000000004a0ad03c        0x4 
 .bss.local.6907
                0x000000004a0ad040       0x16 lib/built-in.o
 *fill*         0x000000004a0ad056        0x2 
 .bss.arp_tx_packet
                0x000000004a0ad058        0x8 net/built-in.o
 .bss.arp_tx_packet_buf
                0x000000004a0ad060      0x640 net/built-in.o
 .bss.arp_wait_packet_ethaddr
                0x000000004a0ad6a0        0x8 net/built-in.o
                0x000000004a0ad6a0                arp_wait_packet_ethaddr
 .bss.arp_wait_timer_start
                0x000000004a0ad6a8        0x8 net/built-in.o
                0x000000004a0ad6a8                arp_wait_timer_start
 .bss.arp_wait_try
                0x000000004a0ad6b0        0x4 net/built-in.o
                0x000000004a0ad6b0                arp_wait_try
 .bss.arp_wait_tx_packet_size
                0x000000004a0ad6b4        0x4 net/built-in.o
                0x000000004a0ad6b4                arp_wait_tx_packet_size
 .bss.net_arp_wait_packet_ip
                0x000000004a0ad6b8        0x4 net/built-in.o
                0x000000004a0ad6b8                net_arp_wait_packet_ip
 *fill*         0x000000004a0ad6bc        0x4 
 .bss.net_arp_wait_reply_ip
                0x000000004a0ad6c0        0x4 net/built-in.o
 *fill*         0x000000004a0ad6c4        0x4 
 .bss.bootp_ids
                0x000000004a0ad6c8       0x10 net/built-in.o
                0x000000004a0ad6c8                bootp_ids
 .bss.bootp_num_ids
                0x000000004a0ad6d8        0x4 net/built-in.o
                0x000000004a0ad6d8                bootp_num_ids
 *fill*         0x000000004a0ad6dc        0x4 
 .bss.bootp_start
                0x000000004a0ad6e0        0x8 net/built-in.o
                0x000000004a0ad6e0                bootp_start
 .bss.bootp_timeout
                0x000000004a0ad6e8        0x8 net/built-in.o
                0x000000004a0ad6e8                bootp_timeout
 .bss.bootp_try
                0x000000004a0ad6f0        0x4 net/built-in.o
                0x000000004a0ad6f0                bootp_try
 .bss.dhcp_leasetime
                0x000000004a0ad6f4        0x4 net/built-in.o
 .bss.dhcp_option_overload
                0x000000004a0ad6f8        0x1 net/built-in.o
 *fill*         0x000000004a0ad6f9        0x7 
 .bss.dhcp_server_ip
                0x000000004a0ad700        0x4 net/built-in.o
 .bss.dhcp_state
                0x000000004a0ad704        0x4 net/built-in.o
 .bss.net_hostname
                0x000000004a0ad708       0x20 net/built-in.o
                0x000000004a0ad708                net_hostname
 .bss.net_nis_domain
                0x000000004a0ad728       0x20 net/built-in.o
                0x000000004a0ad728                net_nis_domain
 .bss.net_root_path
                0x000000004a0ad748       0x40 net/built-in.o
                0x000000004a0ad748                net_root_path
 .bss.time_taken_max
                0x000000004a0ad788        0x8 net/built-in.o
 .bss.eth_errno
                0x000000004a0ad790        0x4 net/built-in.o
 *fill*         0x000000004a0ad794        0x4 
 .bss.act.8651  0x000000004a0ad798        0x8 net/built-in.o
 .bss.env_changed_id.8652
                0x000000004a0ad7a0        0x4 net/built-in.o
 *fill*         0x000000004a0ad7a4        0x4 
 .bss.first_failed.8646
                0x000000004a0ad7a8        0x8 net/built-in.o
 .bss.arp_packet_handler
                0x000000004a0ad7b0        0x8 net/built-in.o
 .bss.net_boot_file_expected_size_in_blocks
                0x000000004a0ad7b8        0x4 net/built-in.o
                0x000000004a0ad7b8                net_boot_file_expected_size_in_blocks
 *fill*         0x000000004a0ad7bc        0x4 
 .bss.net_boot_file_name
                0x000000004a0ad7c0      0x400 net/built-in.o
                0x000000004a0ad7c0                net_boot_file_name
 .bss.net_boot_file_size
                0x000000004a0adbc0        0x4 net/built-in.o
                0x000000004a0adbc0                net_boot_file_size
 .bss.net_busy_flag
                0x000000004a0adbc4        0x4 net/built-in.o
                0x000000004a0adbc4                net_busy_flag
 .bss.net_dev_exists
                0x000000004a0adbc8        0x4 net/built-in.o
 *fill*         0x000000004a0adbcc        0x4 
 .bss.net_dns_server
                0x000000004a0adbd0        0x4 net/built-in.o
                0x000000004a0adbd0                net_dns_server
 *fill*         0x000000004a0adbd4        0x4 
 .bss.net_ethaddr
                0x000000004a0adbd8        0x6 net/built-in.o
                0x000000004a0adbd8                net_ethaddr
 *fill*         0x000000004a0adbde        0x2 
 .bss.net_gateway
                0x000000004a0adbe0        0x4 net/built-in.o
                0x000000004a0adbe0                net_gateway
 *fill*         0x000000004a0adbe4        0x4 
 .bss.net_ip    0x000000004a0adbe8        0x4 net/built-in.o
                0x000000004a0adbe8                net_ip
 .bss.net_ip_id
                0x000000004a0adbec        0x4 net/built-in.o
 .bss.net_netmask
                0x000000004a0adbf0        0x4 net/built-in.o
                0x000000004a0adbf0                net_netmask
 *fill*         0x000000004a0adbf4        0x4 
 .bss.net_null_ethaddr
                0x000000004a0adbf8        0x6 net/built-in.o
                0x000000004a0adbf8                net_null_ethaddr
 *fill*         0x000000004a0adbfe        0x2 
 .bss.net_pkt_buf
                0x000000004a0adc00     0x1e40 net/built-in.o
 .bss.net_restart_wrap
                0x000000004a0afa40        0x4 net/built-in.o
                0x000000004a0afa40                net_restart_wrap
 .bss.net_restarted
                0x000000004a0afa44        0x4 net/built-in.o
 .bss.net_rx_packet
                0x000000004a0afa48        0x8 net/built-in.o
                0x000000004a0afa48                net_rx_packet
 .bss.net_rx_packet_len
                0x000000004a0afa50        0x4 net/built-in.o
                0x000000004a0afa50                net_rx_packet_len
 *fill*         0x000000004a0afa54        0x4 
 .bss.net_rx_packets
                0x000000004a0afa58       0x20 net/built-in.o
                0x000000004a0afa58                net_rx_packets
 .bss.net_server_ethaddr
                0x000000004a0afa78        0x6 net/built-in.o
                0x000000004a0afa78                net_server_ethaddr
 *fill*         0x000000004a0afa7e        0x2 
 .bss.net_server_ip
                0x000000004a0afa80        0x4 net/built-in.o
                0x000000004a0afa80                net_server_ip
 .bss.net_state
                0x000000004a0afa84        0x4 net/built-in.o
                0x000000004a0afa84                net_state
 .bss.net_try_count
                0x000000004a0afa88        0x4 net/built-in.o
 *fill*         0x000000004a0afa8c        0x4 
 .bss.net_tx_packet
                0x000000004a0afa90        0x8 net/built-in.o
                0x000000004a0afa90                net_tx_packet
 .bss.push_packet
                0x000000004a0afa98        0x8 net/built-in.o
                0x000000004a0afa98                push_packet
 .bss.time_delta
                0x000000004a0afaa0        0x8 net/built-in.o
 .bss.time_handler
                0x000000004a0afaa8        0x8 net/built-in.o
 .bss.time_start
                0x000000004a0afab0       0x10 net/built-in.o
 .bss.udp_packet_handler
                0x000000004a0afac0        0x8 net/built-in.o
 .bss.dirfh     0x000000004a0afac8       0x20 net/built-in.o
 .bss.filefh    0x000000004a0afae8       0x40 net/built-in.o
 .bss.filefh3_length
                0x000000004a0afb28        0x4 net/built-in.o
 .bss.fs_mounted
                0x000000004a0afb2c        0x4 net/built-in.o
 .bss.nfs_download_state
                0x000000004a0afb30        0x4 net/built-in.o
 *fill*         0x000000004a0afb34        0x4 
 .bss.nfs_filename
                0x000000004a0afb38        0x8 net/built-in.o
 .bss.nfs_len   0x000000004a0afb40        0x4 net/built-in.o
 .bss.nfs_our_port
                0x000000004a0afb44        0x4 net/built-in.o
 .bss.nfs_path  0x000000004a0afb48        0x8 net/built-in.o
 .bss.nfs_path_buff
                0x000000004a0afb50      0x800 net/built-in.o
 .bss.nfs_server_ip
                0x000000004a0b0350        0x4 net/built-in.o
 .bss.nfs_server_mount_port
                0x000000004a0b0354        0x4 net/built-in.o
 .bss.nfs_server_port
                0x000000004a0b0358        0x4 net/built-in.o
 .bss.nfs_state
                0x000000004a0b035c        0x4 net/built-in.o
 .bss.nfs_timeout_count
                0x000000004a0b0360        0x4 net/built-in.o
 *fill*         0x000000004a0b0364        0x4 
 .bss.rpc_id    0x000000004a0b0368        0x8 net/built-in.o
 .bss.net_ping_ip
                0x000000004a0b0370        0x4 net/built-in.o
                0x000000004a0b0370                net_ping_ip
 .bss.ping_seq_number
                0x000000004a0b0374        0x2 net/built-in.o
 *fill*         0x000000004a0b0376        0x2 
 .bss.default_filename
                0x000000004a0b0378        0xd net/built-in.o
 *fill*         0x000000004a0b0385        0x3 
 .bss.tftp_block_wrap
                0x000000004a0b0388        0x8 net/built-in.o
 .bss.tftp_block_wrap_offset
                0x000000004a0b0390        0x8 net/built-in.o
 .bss.tftp_cur_block
                0x000000004a0b0398        0x8 net/built-in.o
 .bss.tftp_filename
                0x000000004a0b03a0       0x80 net/built-in.o
 .bss.tftp_our_port
                0x000000004a0b0420        0x4 net/built-in.o
 *fill*         0x000000004a0b0424        0x4 
 .bss.tftp_prev_block
                0x000000004a0b0428        0x8 net/built-in.o
 .bss.tftp_remote_ip
                0x000000004a0b0430        0x4 net/built-in.o
 .bss.tftp_remote_port
                0x000000004a0b0434        0x4 net/built-in.o
 .bss.tftp_state
                0x000000004a0b0438        0x4 net/built-in.o
 .bss.timeout_count
                0x000000004a0b043c        0x4 net/built-in.o
                0x000000004a0b0440                . = ALIGN (0x8)

.dynbss         0x000000004a0b0440        0x0
 .dynbss        0x000000004a0b0440        0x0 arch/arm/cpu/armv8/start.o

.bss_end        0x000000004a0b0440        0x0
 *(.__bss_end)
 .__bss_end     0x000000004a0b0440        0x0 arch/arm/lib/built-in.o
                0x000000004a0b0440                __bss_end

/DISCARD/
 *(.dynsym)
 *(.dynstr*)
 *(.dynamic*)
 *(.plt*)
 *(.interp*)
 *(.gnu*)
LOAD arch/arm/cpu/armv8/start.o
START GROUP
LOAD arch/arm/cpu/built-in.o
LOAD arch/arm/cpu/armv8/built-in.o
LOAD arch/arm/lib/built-in.o
LOAD arch/arm/mach-sunxi/built-in.o
LOAD board/sunxi/built-in.o
LOAD cmd/built-in.o
LOAD common/built-in.o
LOAD disk/built-in.o
LOAD drivers/built-in.o
LOAD drivers/dma/built-in.o
LOAD drivers/gpio/built-in.o
LOAD drivers/i2c/built-in.o
LOAD drivers/mtd/built-in.o
LOAD drivers/mtd/onenand/built-in.o
LOAD drivers/mtd/spi/built-in.o
LOAD drivers/net/built-in.o
LOAD drivers/net/phy/built-in.o
LOAD drivers/pci/built-in.o
LOAD drivers/power/built-in.o
LOAD drivers/power/battery/built-in.o
LOAD drivers/power/domain/built-in.o
LOAD drivers/power/fuel_gauge/built-in.o
LOAD drivers/power/mfd/built-in.o
LOAD drivers/power/pmic/built-in.o
LOAD drivers/power/regulator/built-in.o
LOAD drivers/serial/built-in.o
LOAD drivers/spi/built-in.o
LOAD drivers/usb/common/built-in.o
LOAD drivers/usb/dwc3/built-in.o
LOAD drivers/usb/emul/built-in.o
LOAD drivers/usb/eth/built-in.o
LOAD drivers/usb/gadget/built-in.o
LOAD drivers/usb/gadget/udc/built-in.o
LOAD drivers/usb/host/built-in.o
LOAD drivers/usb/musb-new/built-in.o
LOAD drivers/usb/musb/built-in.o
LOAD drivers/usb/phy/built-in.o
LOAD drivers/usb/ulpi/built-in.o
LOAD env/built-in.o
LOAD fs/built-in.o
LOAD lib/built-in.o
LOAD net/built-in.o
LOAD test/built-in.o
LOAD test/dm/built-in.o
END GROUP
LOAD /Devel/NOVAsom_SDK/Xcompiler-1.0.5/XarmGlibc_6.4_64_4_11_hfp/bin/../lib/gcc/aarch64-buildroot-linux-gnu/6.4.0/libgcc.a
OUTPUT(u-boot elf64-littleaarch64)

.debug_line     0x0000000000000000    0x36676
 .debug_line    0x0000000000000000       0xab arch/arm/cpu/armv8/start.o
 .debug_line    0x00000000000000ab     0x1173 arch/arm/cpu/armv8/built-in.o
 .debug_line    0x000000000000121e     0x109d arch/arm/lib/built-in.o
 .debug_line    0x00000000000022bb     0x14ea arch/arm/mach-sunxi/built-in.o
 .debug_line    0x00000000000037a5      0x483 board/sunxi/built-in.o
 .debug_line    0x0000000000003c28     0x7531 cmd/built-in.o
 .debug_line    0x000000000000b159     0xa4ed common/built-in.o
 .debug_line    0x0000000000015646     0x16a2 disk/built-in.o
 .debug_line    0x0000000000016ce8     0x7f7e drivers/built-in.o
 .debug_line    0x000000000001ec66      0xc8c drivers/gpio/built-in.o
 .debug_line    0x000000000001f8f2      0x591 drivers/i2c/built-in.o
 .debug_line    0x000000000001fe83      0x59f drivers/net/built-in.o
 .debug_line    0x0000000000020422      0x838 drivers/net/phy/built-in.o
 .debug_line    0x0000000000020c5a      0x900 drivers/serial/built-in.o
 .debug_line    0x000000000002155a     0x1f6d drivers/usb/host/built-in.o
 .debug_line    0x00000000000234c7     0x10a3 env/built-in.o
 .debug_line    0x000000000002456a     0x229b fs/built-in.o
 .debug_line    0x0000000000026805     0xd0f2 lib/built-in.o
 .debug_line    0x00000000000338f7     0x2b1a net/built-in.o
 .debug_line    0x0000000000036411      0x265 test/dm/built-in.o

.debug_info     0x0000000000000000   0x1a5eaa
 .debug_info    0x0000000000000000       0x83 arch/arm/cpu/armv8/start.o
 .debug_info    0x0000000000000083     0x6b0a arch/arm/cpu/armv8/built-in.o
 .debug_info    0x0000000000006b8d     0x88f5 arch/arm/lib/built-in.o
 .debug_info    0x000000000000f482     0xa16a arch/arm/mach-sunxi/built-in.o
 .debug_info    0x00000000000195ec     0x2416 board/sunxi/built-in.o
 .debug_info    0x000000000001ba02    0x3d46c cmd/built-in.o
 .debug_info    0x0000000000058e6e    0x4b521 common/built-in.o
 .debug_info    0x00000000000a438f     0x94f5 disk/built-in.o
 .debug_info    0x00000000000ad884    0x45087 drivers/built-in.o
 .debug_info    0x00000000000f290b     0x5817 drivers/gpio/built-in.o
 .debug_info    0x00000000000f8122     0x2ba2 drivers/i2c/built-in.o
 .debug_info    0x00000000000facc4     0x3edf drivers/net/built-in.o
 .debug_info    0x00000000000feba3     0x3447 drivers/net/phy/built-in.o
 .debug_info    0x0000000000101fea     0x4ac6 drivers/serial/built-in.o
 .debug_info    0x0000000000106ab0    0x12faa drivers/usb/host/built-in.o
 .debug_info    0x0000000000119a5a     0x87e0 env/built-in.o
 .debug_info    0x000000000012223a     0xf2b0 fs/built-in.o
 .debug_info    0x00000000001314ea    0x5f36f lib/built-in.o
 .debug_info    0x0000000000190859    0x13f5d net/built-in.o
 .debug_info    0x00000000001a47b6     0x16f4 test/dm/built-in.o

.debug_abbrev   0x0000000000000000    0x340f2
 .debug_abbrev  0x0000000000000000       0x14 arch/arm/cpu/armv8/start.o
 .debug_abbrev  0x0000000000000014      0xe88 arch/arm/cpu/armv8/built-in.o
 .debug_abbrev  0x0000000000000e9c     0x1385 arch/arm/lib/built-in.o
 .debug_abbrev  0x0000000000002221     0x1a52 arch/arm/mach-sunxi/built-in.o
 .debug_abbrev  0x0000000000003c73      0x4ec board/sunxi/built-in.o
 .debug_abbrev  0x000000000000415f     0x8273 cmd/built-in.o
 .debug_abbrev  0x000000000000c3d2     0x8e6b common/built-in.o
 .debug_abbrev  0x000000000001523d     0x1333 disk/built-in.o
 .debug_abbrev  0x0000000000016570     0x8403 drivers/built-in.o
 .debug_abbrev  0x000000000001e973      0xa67 drivers/gpio/built-in.o
 .debug_abbrev  0x000000000001f3da      0x569 drivers/i2c/built-in.o
 .debug_abbrev  0x000000000001f943      0x539 drivers/net/built-in.o
 .debug_abbrev  0x000000000001fe7c      0x57e drivers/net/phy/built-in.o
 .debug_abbrev  0x00000000000203fa      0xa6a drivers/serial/built-in.o
 .debug_abbrev  0x0000000000020e64     0x1701 drivers/usb/host/built-in.o
 .debug_abbrev  0x0000000000022565     0x164d env/built-in.o
 .debug_abbrev  0x0000000000023bb2     0x18e0 fs/built-in.o
 .debug_abbrev  0x0000000000025492     0xc368 lib/built-in.o
 .debug_abbrev  0x00000000000317fa     0x2600 net/built-in.o
 .debug_abbrev  0x0000000000033dfa      0x2f8 test/dm/built-in.o

.debug_aranges  0x0000000000000000     0x9ed0
 .debug_aranges
                0x0000000000000000       0x30 arch/arm/cpu/armv8/start.o
 .debug_aranges
                0x0000000000000030      0x480 arch/arm/cpu/armv8/built-in.o
 .debug_aranges
                0x00000000000004b0      0x350 arch/arm/lib/built-in.o
 .debug_aranges
                0x0000000000000800      0x3e0 arch/arm/mach-sunxi/built-in.o
 .debug_aranges
                0x0000000000000be0       0xc0 board/sunxi/built-in.o
 .debug_aranges
                0x0000000000000ca0     0x1040 cmd/built-in.o
 .debug_aranges
                0x0000000000001ce0     0x1f50 common/built-in.o
 .debug_aranges
                0x0000000000003c30      0x320 disk/built-in.o
 .debug_aranges
                0x0000000000003f50     0x1640 drivers/built-in.o
 .debug_aranges
                0x0000000000005590      0x380 drivers/gpio/built-in.o
 .debug_aranges
                0x0000000000005910      0x160 drivers/i2c/built-in.o
 .debug_aranges
                0x0000000000005a70       0xe0 drivers/net/built-in.o
 .debug_aranges
                0x0000000000005b50      0x180 drivers/net/phy/built-in.o
 .debug_aranges
                0x0000000000005cd0      0x250 drivers/serial/built-in.o
 .debug_aranges
                0x0000000000005f20      0x4e0 drivers/usb/host/built-in.o
 .debug_aranges
                0x0000000000006400      0x2f0 env/built-in.o
 .debug_aranges
                0x00000000000066f0      0x620 fs/built-in.o
 .debug_aranges
                0x0000000000006d10     0x29a0 lib/built-in.o
 .debug_aranges
                0x00000000000096b0      0x7c0 net/built-in.o
 .debug_aranges
                0x0000000000009e70       0x60 test/dm/built-in.o

.comment        0x0000000000000000       0x1f
 .comment       0x0000000000000000       0x1f arch/arm/cpu/armv8/built-in.o
                                         0xa0 (size before relaxing)
 .comment       0x000000000000001f      0x100 arch/arm/lib/built-in.o
 .comment       0x000000000000001f      0x120 arch/arm/mach-sunxi/built-in.o
 .comment       0x000000000000001f       0x20 board/sunxi/built-in.o
 .comment       0x000000000000001f      0x4e0 cmd/built-in.o
 .comment       0x000000000000001f      0x460 common/built-in.o
 .comment       0x000000000000001f       0x80 disk/built-in.o
 .comment       0x000000000000001f      0x480 drivers/built-in.o
 .comment       0x000000000000001f       0x40 drivers/gpio/built-in.o
 .comment       0x000000000000001f       0x20 drivers/i2c/built-in.o
 .comment       0x000000000000001f       0x20 drivers/net/built-in.o
 .comment       0x000000000000001f       0x20 drivers/net/phy/built-in.o
 .comment       0x000000000000001f       0x40 drivers/serial/built-in.o
 .comment       0x000000000000001f       0xa0 drivers/usb/host/built-in.o
 .comment       0x000000000000001f       0xc0 env/built-in.o
 .comment       0x000000000000001f       0xc0 fs/built-in.o
 .comment       0x000000000000001f      0x800 lib/built-in.o
 .comment       0x000000000000001f      0x120 net/built-in.o
 .comment       0x000000000000001f       0x20 test/dm/built-in.o

.note.GNU-stack
                0x0000000000000000        0x0
 .note.GNU-stack
                0x0000000000000000        0x0 arch/arm/cpu/armv8/built-in.o
 .note.GNU-stack
                0x0000000000000000        0x0 arch/arm/lib/built-in.o
 .note.GNU-stack
                0x0000000000000000        0x0 arch/arm/mach-sunxi/built-in.o
 .note.GNU-stack
                0x0000000000000000        0x0 board/sunxi/built-in.o
 .note.GNU-stack
                0x0000000000000000        0x0 cmd/built-in.o
 .note.GNU-stack
                0x0000000000000000        0x0 common/built-in.o
 .note.GNU-stack
                0x0000000000000000        0x0 disk/built-in.o
 .note.GNU-stack
                0x0000000000000000        0x0 drivers/built-in.o
 .note.GNU-stack
                0x0000000000000000        0x0 drivers/gpio/built-in.o
 .note.GNU-stack
                0x0000000000000000        0x0 drivers/i2c/built-in.o
 .note.GNU-stack
                0x0000000000000000        0x0 drivers/net/built-in.o
 .note.GNU-stack
                0x0000000000000000        0x0 drivers/net/phy/built-in.o
 .note.GNU-stack
                0x0000000000000000        0x0 drivers/serial/built-in.o
 .note.GNU-stack
                0x0000000000000000        0x0 drivers/usb/host/built-in.o
 .note.GNU-stack
                0x0000000000000000        0x0 env/built-in.o
 .note.GNU-stack
                0x0000000000000000        0x0 fs/built-in.o
 .note.GNU-stack
                0x0000000000000000        0x0 lib/built-in.o
 .note.GNU-stack
                0x0000000000000000        0x0 net/built-in.o
 .note.GNU-stack
                0x0000000000000000        0x0 test/dm/built-in.o

.debug_frame    0x0000000000000000    0x194b8
 .debug_frame   0x0000000000000000      0x5d8 arch/arm/cpu/armv8/built-in.o
 .debug_frame   0x00000000000005d8      0x4d0 arch/arm/lib/built-in.o
 .debug_frame   0x0000000000000aa8      0x670 arch/arm/mach-sunxi/built-in.o
 .debug_frame   0x0000000000001118      0x1f0 board/sunxi/built-in.o
 .debug_frame   0x0000000000001308     0x2938 cmd/built-in.o
 .debug_frame   0x0000000000003c40     0x5688 common/built-in.o
 .debug_frame   0x00000000000092c8      0x9c0 disk/built-in.o
 .debug_frame   0x0000000000009c88     0x3588 drivers/built-in.o
 .debug_frame   0x000000000000d210      0xa60 drivers/gpio/built-in.o
 .debug_frame   0x000000000000dc70      0x450 drivers/i2c/built-in.o
 .debug_frame   0x000000000000e0c0      0x2b0 drivers/net/built-in.o
 .debug_frame   0x000000000000e370      0x420 drivers/net/phy/built-in.o
 .debug_frame   0x000000000000e790      0x538 drivers/serial/built-in.o
 .debug_frame   0x000000000000ecc8      0xd08 drivers/usb/host/built-in.o
 .debug_frame   0x000000000000f9d0      0x768 env/built-in.o
 .debug_frame   0x0000000000010138     0x1240 fs/built-in.o
 .debug_frame   0x0000000000011378     0x6a98 lib/built-in.o
 .debug_frame   0x0000000000017e10     0x15e8 net/built-in.o
 .debug_frame   0x00000000000193f8       0xc0 test/dm/built-in.o

.debug_str      0x0000000000000000    0x1d1a1
 .debug_str     0x0000000000000000     0x1572 arch/arm/cpu/armv8/built-in.o
                                       0x4551 (size before relaxing)
 .debug_str     0x0000000000001572     0x1866 arch/arm/lib/built-in.o
                                       0x70dd (size before relaxing)
 .debug_str     0x0000000000002dd8     0x116b arch/arm/mach-sunxi/built-in.o
                                       0x7db6 (size before relaxing)
 .debug_str     0x0000000000003f43      0x682 board/sunxi/built-in.o
                                       0x1721 (size before relaxing)
 .debug_str     0x00000000000045c5     0x48c4 cmd/built-in.o
                                      0x25e8f (size before relaxing)
 .debug_str     0x0000000000008e89     0x4ed1 common/built-in.o
                                      0x2d1b3 (size before relaxing)
 .debug_str     0x000000000000dd5a      0x9d6 disk/built-in.o
                                       0x44c5 (size before relaxing)
 .debug_str     0x000000000000e730     0x4cfa drivers/built-in.o
                                      0x2ff23 (size before relaxing)
 .debug_str     0x000000000001342a      0x511 drivers/gpio/built-in.o
                                       0x311c (size before relaxing)
 .debug_str     0x000000000001393b      0x36c drivers/i2c/built-in.o
                                       0x17cc (size before relaxing)
 .debug_str     0x0000000000013ca7      0x479 drivers/net/built-in.o
                                       0x2347 (size before relaxing)
 .debug_str     0x0000000000014120      0x1f2 drivers/net/phy/built-in.o
                                       0x1900 (size before relaxing)
 .debug_str     0x0000000000014312      0x4ea drivers/serial/built-in.o
                                       0x2f3e (size before relaxing)
 .debug_str     0x00000000000147fc      0xead drivers/usb/host/built-in.o
                                       0xa30d (size before relaxing)
 .debug_str     0x00000000000156a9      0x648 env/built-in.o
                                       0x5de6 (size before relaxing)
 .debug_str     0x0000000000015cf1      0xfed fs/built-in.o
                                       0x762b (size before relaxing)
 .debug_str     0x0000000000016cde     0x50fe lib/built-in.o
                                      0x37949 (size before relaxing)
 .debug_str     0x000000000001bddc     0x1349 net/built-in.o
                                       0xd022 (size before relaxing)
 .debug_str     0x000000000001d125       0x7c test/dm/built-in.o
                                       0x13d4 (size before relaxing)

.debug_loc      0x0000000000000000    0xf595e
 .debug_loc     0x0000000000000000     0x2277 arch/arm/cpu/armv8/built-in.o
 .debug_loc     0x0000000000002277      0xf25 arch/arm/lib/built-in.o
 .debug_loc     0x000000000000319c     0x22a9 arch/arm/mach-sunxi/built-in.o
 .debug_loc     0x0000000000005445      0x5e7 board/sunxi/built-in.o
 .debug_loc     0x0000000000005a2c    0x1bff4 cmd/built-in.o
 .debug_loc     0x0000000000021a20    0x2f9e9 common/built-in.o
 .debug_loc     0x0000000000051409     0x6349 disk/built-in.o
 .debug_loc     0x0000000000057752    0x1b3f0 drivers/built-in.o
 .debug_loc     0x0000000000072b42     0x41e7 drivers/gpio/built-in.o
 .debug_loc     0x0000000000076d29     0x2393 drivers/i2c/built-in.o
 .debug_loc     0x00000000000790bc     0x2327 drivers/net/built-in.o
 .debug_loc     0x000000000007b3e3     0x2e97 drivers/net/phy/built-in.o
 .debug_loc     0x000000000007e27a     0x191b drivers/serial/built-in.o
 .debug_loc     0x000000000007fb95     0xd1ef drivers/usb/host/built-in.o
 .debug_loc     0x000000000008cd84     0x3359 env/built-in.o
 .debug_loc     0x00000000000900dd     0xce72 fs/built-in.o
 .debug_loc     0x000000000009cf4f    0x4f603 lib/built-in.o
 .debug_loc     0x00000000000ec552     0x8f6a net/built-in.o
 .debug_loc     0x00000000000f54bc      0x4a2 test/dm/built-in.o

.debug_ranges   0x0000000000000000    0x19e30
 .debug_ranges  0x0000000000000000      0x8c0 arch/arm/cpu/armv8/built-in.o
 .debug_ranges  0x00000000000008c0      0x390 arch/arm/lib/built-in.o
 .debug_ranges  0x0000000000000c50      0x610 arch/arm/mach-sunxi/built-in.o
 .debug_ranges  0x0000000000001260      0x110 board/sunxi/built-in.o
 .debug_ranges  0x0000000000001370     0x2eb0 cmd/built-in.o
 .debug_ranges  0x0000000000004220     0x5160 common/built-in.o
 .debug_ranges  0x0000000000009380     0x1080 disk/built-in.o
 .debug_ranges  0x000000000000a400     0x3700 drivers/built-in.o
 .debug_ranges  0x000000000000db00      0x6e0 drivers/gpio/built-in.o
 .debug_ranges  0x000000000000e1e0      0x2c0 drivers/i2c/built-in.o
 .debug_ranges  0x000000000000e4a0      0x460 drivers/net/built-in.o
 .debug_ranges  0x000000000000e900      0x910 drivers/net/phy/built-in.o
 .debug_ranges  0x000000000000f210      0x3c0 drivers/serial/built-in.o
 .debug_ranges  0x000000000000f5d0     0x1630 drivers/usb/host/built-in.o
 .debug_ranges  0x0000000000010c00      0x6a0 env/built-in.o
 .debug_ranges  0x00000000000112a0     0x1520 fs/built-in.o
 .debug_ranges  0x00000000000127c0     0x5f80 lib/built-in.o
 .debug_ranges  0x0000000000018740     0x16a0 net/built-in.o
 .debug_ranges  0x0000000000019de0       0x50 test/dm/built-in.o
